(isonetto.HMM2
HiddenMarkovModel
p0
(dp1
S'A'
p2
(lp3
(lp4
F0.0188898371840475
aF0.205899170755978
aF0.0024605644680103745
aF0.048057989761643834
aF0.0009582693790775887
aF6.259329776806009e-06
aF7.048735670382923e-05
aF0.03933693613008954
aF0.005029802308554206
aF0.6792906833261172
aa(lp5
F0.0002950819395435458
aF0.01111501879727379
aF0.056449993523675794
aF0.6372373120670939
aF0.044527529404240124
aF1.2982519940218123e-05
aF0.034430374849901565
aF0.1978684233865451
aF0.007611251962804491
aF0.010452031548981677
aa(lp6
F0.38822194833665424
aF0.0018006211815842727
aF0.18172388987831123
aF5.795701166652798e-05
aF0.0002732921980211808
aF5.1264832968039795e-06
aF0.2780811005410279
aF0.0980568735444212
aF0.016115192814150293
aF0.03566399801086479
aa(lp7
F0.12852805630957442
aF0.0015138594532159012
aF0.014184630879051204
aF0.0003349771342285472
aF0.29422395761884307
aF0.5525868369106357
aF0.002958772668925597
aF7.847196343662993e-05
aF0.00520086488874288
aF0.00038957217334590553
aa(lp8
F0.00765468434402786
aF0.0001809307034925186
aF0.00013123406345579561
aF3.4871072316297242e-06
aF0.0006750794442334586
aF0.49968064030990345
aF0.0007889796272376043
aF0.00011605876141764198
aF0.49069401147071723
aF7.489416828379982e-05
aa(lp9
F0.010403104212243743
aF0.07600200300392763
aF0.0013269296511442764
aF0.017541655294572855
aF0.394452986235105
aF0.0018011962720378897
aF0.0665386883241316
aF0.00014178600976855885
aF0.30812636950645844
aF0.12366528149060971
aa(lp10
F0.0002663649383504301
aF0.23144453083564628
aF0.005590693457889799
aF0.0016477095073896815
aF0.02735770933590753
aF0.0006986349435174857
aF0.01135924549387663
aF0.7137837959845968
aF0.0038365551606934644
aF0.004014760342131379
aa(lp11
F0.1740847373392003
aF0.00015334762439312934
aF0.08412088380201524
aF0.0001541158392836368
aF0.0001180893065676016
aF0.00018692742008139305
aF0.5160949384076692
aF0.0009548971306744424
aF0.22385597520785366
aF0.0002760879222600096
aa(lp12
F9.61394563524189e-06
aF0.0004783966773843856
aF1.6099410135998269e-06
aF0.09699377241222566
aF0.630734240249538
aF0.00632766613613144
aF2.2923928365864375e-06
aF0.2651312080563005
aF3.826198038237244e-05
aF0.0002829382085529294
aa(lp13
F0.015803604945693713
aF0.026926190500146118
aF0.023386881930636778
aF0.0270126469477837
aF0.00045136133439060375
aF2.748658606748781e-06
aF0.0009304085926965013
aF0.2988861607688382
aF2.9084059398005755e-05
aF0.6065709122618105
aasS'D'
p14
I301
sS'parser'
p15
(isonetto.parser
SonnetParser
p16
(dp17
S'hmm_lines'
p18
(lp19
(lp20
I0
aI1
aI2
aI3
aI4
aI5
aa(lp21
I6
aI7
aI8
aI9
aI10
aI11
aI12
aa(lp22
I13
aI14
aI15
aI16
aI17
aI18
aI19
aI20
aa(lp23
I21
aI22
aI23
aI10
aI24
aI21
aI25
aa(lp24
I13
aI26
aI27
aI28
aI29
aI30
aI31
aI32
aa(lp25
I33
aI34
aI35
aI36
aI37
aI38
aI39
aI40
aa(lp26
I41
aI42
aI43
aI44
aI45
aI46
aa(lp27
I34
aI38
aI34
aI47
aI28
aI34
aI48
aI38
aI49
aI50
aa(lp28
I26
aI6
aI51
aI52
aI15
aI53
aI54
aI55
aa(lp29
I56
aI57
aI58
aI28
aI15
aI59
aI60
aa(lp30
I61
aI29
aI30
aI62
aI63
aI34
aI64
aa(lp31
I56
aI22
aI65
aI66
aI67
aI68
aI69
aa(lp32
I70
aI15
aI71
aI72
aI73
aI74
aI75
aI76
aa(lp33
I28
aI77
aI15
aI53
aI78
aI18
aI15
aI79
aI56
aI80
aa(lp34
I81
aI82
aI83
aI84
aI85
aI34
aI86
aa(lp35
I56
aI87
aI88
aI89
aI68
aI34
aI8
aI90
aa(lp36
I34
aI91
aI92
aI93
aI94
aI95
aI96
aI52
aa(lp37
I97
aI76
aI42
aI98
aI99
aI100
aI101
aI102
aI103
aa(lp38
I104
aI105
aI106
aI44
aI107
aI34
aI108
aI46
aa(lp39
I44
aI107
aI15
aI109
aI100
aI34
aI110
aI111
aa(lp40
I28
aI112
aI61
aI29
aI30
aI88
aI113
aI32
aa(lp41
I114
aI115
aI107
aI116
aI117
aI56
aI118
aI119
aa(lp42
I120
aI121
aI122
aI119
aI123
aI34
aI8
aI124
aa(lp43
I125
aI26
aI126
aI127
aI128
aI129
aI130
aI100
aI131
aa(lp44
I84
aI132
aI133
aI134
aI56
aI135
aI133
aI136
aI137
aa(lp45
I138
aI21
aI108
aI18
aI139
aI29
aa(lp46
I74
aI114
aI28
aI76
aI140
aI141
aI81
aI26
aI51
aI136
aa(lp47
I56
aI142
aI34
aI143
aI144
aI81
aI26
aI145
aI146
aI147
aa(lp48
I148
aI68
aI34
aI149
aI56
aI150
aI15
aI151
aI26
aI152
aa(lp49
I52
aI153
aI15
aI19
aI6
aI151
aI17
aI154
aI155
aa(lp50
I156
aI54
aI157
aI125
aI52
aI26
aI158
aI159
aa(lp51
I26
aI160
aI161
aI15
aI71
aI162
aI163
aI164
aa(lp52
I165
aI44
aI153
aI166
aI94
aI129
aI156
aI167
aI168
aa(lp53
I169
aI15
aI170
aI100
aI34
aI171
aa(lp54
I72
aI172
aI153
aI173
aI94
aI174
aI97
aI76
aI15
aI175
aa(lp55
I100
aI21
aI38
aI176
aI28
aI177
aI178
aa(lp56
I26
aI51
aI34
aI179
aI149
aI56
aI166
aI68
aI80
aa(lp57
I180
aI181
aI15
aI182
aI183
aI100
aI184
aI185
aa(lp58
I94
aI26
aI186
aI187
aI100
aI29
aI188
aI189
aI142
aa(lp59
I190
aI100
aI191
aI74
aI34
aI192
aI19
aa(lp60
I13
aI125
aI26
aI193
aI194
aI158
aI28
aI76
aa(lp61
I12
aI195
aI56
aI29
aI196
aI197
aI37
aI80
aa(lp62
I198
aI199
aI200
aI160
aI26
aI201
aa(lp63
I202
aI34
aI38
aI34
aI8
aI203
aa(lp64
I204
aI205
aI206
aI207
aI13
aI208
aI209
aa(lp65
I56
aI105
aI210
aI166
aI211
aI28
aI212
aI213
aI214
aa(lp66
I104
aI215
aI216
aI200
aI160
aI26
aI217
aa(lp67
I15
aI218
aI219
aI220
aI80
aI28
aI221
aa(lp68
I222
aI223
aI200
aI160
aI26
aI124
aa(lp69
I94
aI224
aI42
aI132
aI100
aI225
aI226
aI227
aI158
aI193
aa(lp70
I165
aI228
aI229
aI37
aI34
aI38
aI230
aa(lp71
I26
aI100
aI34
aI38
aI34
aI48
aI38
aI160
aI231
aa(lp72
I104
aI120
aI81
aI232
aI180
aI80
aI28
aI76
aI233
aa(lp73
I234
aI235
aI236
aI227
aI26
aI237
aa(lp74
I34
aI238
aI108
aI239
aI76
aI240
aI37
aI80
aa(lp75
I241
aI242
aI243
aI244
aI245
aI28
aI76
aa(lp76
I212
aI246
aI6
aI37
aI247
aI248
aI249
aI250
aa(lp77
I15
aI182
aI251
aI44
aI252
aI253
aI208
aI254
aa(lp78
I97
aI255
aI15
aI256
aI28
aI15
aI257
aI258
aa(lp79
I56
aI6
aI259
aI241
aI260
aI208
aI261
aa(lp80
I165
aI11
aI262
aI19
aI263
aI264
aI96
aa(lp81
I28
aI265
aI266
aI56
aI267
aI268
aI269
aa(lp82
I270
aI271
aI37
aI272
aI56
aI110
aI273
aI274
aI233
aa(lp83
I108
aI275
aI276
aI56
aI277
aI252
aI44
aa(lp84
I104
aI114
aI158
aI278
aI279
aI280
aa(lp85
I42
aI281
aI282
aI283
aI68
aI284
aI100
aI149
aa(lp86
I8
aI285
aI37
aI108
aI114
aI286
aa(lp87
I287
aI146
aI287
aI288
aI289
aI234
aI146
aI290
aa(lp88
I13
aI291
aI292
aI293
aI294
aI37
aI266
aI295
aa(lp89
I296
aI13
aI297
aI298
aI297
aI299
aI300
aI243
aI48
aasS'hmm_stanzas'
p90
(lp91
sS'word_to_num'
p92
(dp93
S'summer'
p94
I264
sS'all'
p95
I107
sS'golden'
p96
I192
sS'being'
p97
I105
sS'couldst'
p98
I126
sS'flowers'
p99
I291
sS'child'
p100
I130
sS'unfair'
p101
I259
sS'leads'
p102
I263
sS'held'
p103
I103
sS'bright'
p104
I31
sS'through'
p105
I186
sS'lend'
p106
I209
sS'love'
p107
I176
sS'cold'
p108
I147
sS'still'
p109
I300
sS'yet'
p110
I226
sS'viewest'
p111
I152
sS'count'
p112
I134
sS'increase'
p113
I5
sS'doth'
p114
I208
sS'how'
p115
I120
sS'rose'
p116
I9
sS'treasure'
p117
I109
sS"summer's"
p118
I278
sS'should'
p119
I17
sS'to'
p120
I28
sS'only'
p121
I57
sS'liquid'
p122
I281
sS'prisoner'
p123
I282
sS'tillage'
p124
I170
sS'beauteous'
p125
I215
sS'fuel'
p126
I40
sS'must'
p127
I239
sS'might'
p128
I10
sS'worth'
p129
I102
sS'checked'
p130
I271
sS'then'
p131
I104
sS'his'
p132
I21
sS'tyrants'
p133
I256
sS'thereby'
p134
I7
sS'very'
p135
I257
sS'largess'
p136
I219
sS'thee'
p137
I80
sS'stop'
p138
I177
sS'bear'
p139
I24
sS'bereft'
p140
I286
sS"th'"
p141
I244
sS'walls'
p142
I284
sS'traffic'
p143
I229
sS'they'
p144
I294
sS'despite'
p145
I190
sS'not'
p146
I158
sS'world'
p147
I71
sS'now'
p148
I52
sS'nor'
p149
I287
sS'having'
p150
I228
sS'is'
p151
I153
sS'desire'
p152
I4
sS"feed'st"
p153
I33
sS'bareness'
p154
I277
sS'did'
p155
I249
sS'die'
p156
I12
sS'dig'
p157
I87
sS'beguile'
p158
I161
sS'herald'
p159
I58
sS'she'
p160
I166
sS'though'
p161
I293
sS'succession'
p162
I139
sS'small'
p163
I101
sS'calls'
p164
I180
sS'where'
p165
I44
sS'spend'
p166
I201
sS'lends'
p167
I211
sS'decease'
p168
I20
sS'loveliness'
p169
I199
sS'art'
p170
I51
sS'fair'
p171
I129
sS'spring'
p172
I60
sS'frame'
p173
I250
sS'some'
p174
I163
sS'back'
p175
I181
sS'him'
p176
I268
sS'famine'
p177
I43
sS'see'
p178
I142
sS'legacy'
p179
I203
sS'lovely'
p180
I182
sS'are'
p181
I213
sS"nature's"
p182
I204
sS'tender'
p183
I22
sS'creatures'
p184
I2
sS'leave'
p185
I237
sS'what'
p186
I234
sS'for'
p187
I165
sS'sum'
p188
I132
sS'contracted'
p189
I27
sS'ornament'
p190
I55
sS'forty'
p191
I82
sS'content'
p192
I64
sS'foe'
p193
I47
sS'confounds'
p194
I267
sS'dost'
p195
I160
sS'every'
p196
I252
sS'dies'
p197
I197
sS'it'
p198
I146
sS'new'
p199
I140
sS'womb'
p200
I168
sS'be'
p201
I76
sS'we'
p202
I3
sS'who'
p203
I172
sS'eating'
p204
I116
sS'praise'
p205
I119
sS'whose'
p206
I156
sS'remembered'
p207
I194
sS'frank'
p208
I210
sS'never'
p209
I11
sS'given'
p210
I220
sS"'this"
p211
I128
sS'quite'
p212
I274
sS'hours'
p213
I246
sS'pent'
p214
I283
sS'windows'
p215
I187
sS'meet'
p216
I295
sS'posterity'
p217
I178
sS'eye'
p218
I253
sS'disdains'
p219
I169
sS'by'
p220
I18
sS'uneared'
p221
I167
sS'pity'
p222
I70
sS'on'
p223
I96
sS'great'
p224
I224
sS'substance'
p225
I299
sS'usurer'
p226
I223
sS'deserved'
p227
I123
sS'thou'
p228
I26
sS'of'
p229
I100
sS'leaves'
p230
I273
sS'days'
p231
I111
sS'wrinkles'
p232
I191
sS'fond'
p233
I174
sS'april'
p234
I183
sS'thine'
p235
I29
sS'tomb'
p236
I175
sS'tombed'
p237
I240
sS'or'
p238
I72
sS'repair'
p239
I157
sS'own'
p240
I30
sS'gazed'
p241
I95
sS'unthrifty'
p242
I198
sS'sweet'
p243
I48
sS'image'
p244
I196
sS'within'
p245
I61
sS'canst'
p246
I227
sS"world's"
p247
I53
sS'lies'
p248
I46
sS'another'
p249
I155
sS'remembrance'
p250
I289
sS'old'
p251
I136
sS"light's"
p252
I35
sS'use'
p253
I124
sS'profitless'
p254
I222
sS'from'
p255
I0
sS'renewest'
p256
I159
sS'her'
p257
I184
sS'there'
p258
I269
sS'single'
p259
I195
sS'due'
p260
I78
sS'trenches'
p261
I89
sS"feel'st"
p262
I145
sS'their'
p263
I297
sS'live'
p264
I193
sS'much'
p265
I121
sS'too'
p266
I49
sS'memory'
p267
I25
sS'show'
p268
I298
sS'dwell'
p269
I254
sS'waste'
p270
I67
sS'was'
p271
I290
sS'fairest'
p272
I1
sS'more'
p273
I122
sS'free'
p274
I214
sS'gaudy'
p275
I59
sS'eyes'
p276
I32
sS'leese'
p277
I296
sS'unbless'
p278
I162
sS'form'
p279
I154
sS'that'
p280
I6
sS'acceptable'
p281
I235
sS'frost'
p282
I272
sS'heir'
p283
I23
sS'but'
p284
I13
sS'else'
p285
I73
sS'glass'
p286
I149
sS'audit'
p287
I236
sS'warm'
p288
I144
sS'lives'
p289
I243
sS'deep'
p290
I88
sS'tattered'
p291
I98
sS'an'
p292
I115
sS'with'
p293
I37
sS'eat'
p294
I77
sS'bud'
p295
I62
sS'he'
p296
I173
sS'abundance'
p297
I45
sS'made'
p298
I141
sS'look'
p299
I148
sS'gentle'
p300
I247
sS'this'
p301
I74
sS'hideous'
p302
I265
sS'work'
p303
I248
sS'say'
p304
I112
sS'niggarding'
p305
I69
sS'tell'
p306
I150
sS'will'
p307
I97
sS'riper'
p308
I16
sS'cruel'
p309
I50
sS'flame'
p310
I36
sS'shall'
p311
I84
sS'were'
p312
I114
sS'those'
p313
I212
sS'making'
p314
I41
sS'gives'
p315
I206
sS'my'
p316
I133
sS'nature'
p317
I232
sS'and'
p318
I56
sS'gone'
p319
I233
sS'give'
p320
I221
sS'brow'
p321
I86
sS'in'
p322
I68
sS'distillation'
p323
I279
sS'mine'
p324
I131
sS"beauty's"
p325
I8
sS'livery'
p326
I93
sS'shame'
p327
I117
sS'as'
p328
I14
sS'substantial'
p329
I39
sS"o'er"
p330
I275
sS"mak'st"
p331
I66
sS'churl'
p332
I65
sS'face'
p333
I151
sS'alone'
p334
I230
sS'bounteous'
p335
I218
sS'if'
p336
I125
sS'gaze'
p337
I251
sS'sap'
p338
I270
sS'winter'
p339
I266
sS'sunken'
p340
I113
sS'no'
p341
I288
sS'prime'
p342
I185
sS'self'
p343
I38
sS'when'
p344
I81
sS'excel'
p345
I261
sS'same'
p346
I258
sS'thriftless'
p347
I118
sS'field'
p348
I90
sS'executor'
p349
I245
sS'which'
p350
I241
sS'distilled'
p351
I292
sS'answer'
p352
I127
sS'husbandry'
p353
I171
sS'lusty'
p354
I110
sS'fairly'
p355
I260
sS'play'
p356
I255
sS'used'
p357
I242
sS'deceive'
p358
I231
sS'beauty'
p359
I108
sS'besiege'
p360
I85
sS'resting'
p361
I262
sS'proving'
p362
I138
sS'why'
p363
I200
sS'mother'
p364
I164
sS'upon'
p365
I202
sS'effect'
p366
I285
sS'weed'
p367
I99
sS'unused'
p368
I238
sS'abuse'
p369
I217
sS'blood'
p370
I143
sS'nothing'
p371
I207
sS'bequest'
p372
I205
sS'winters'
p373
I83
sS'grave'
p374
I79
sS'shalt'
p375
I189
sS'a'
p376
I42
sS'sums'
p377
I225
sS"excuse'"
p378
I137
sS'thy'
p379
I34
sS"mother's"
p380
I179
sS"youth's"
p381
I91
sS'age'
p382
I188
sS'proud'
p383
I92
sS'asked'
p384
I106
sS'niggard'
p385
I216
sS'so'
p386
I94
sS'glutton'
p387
I75
sS'time'
p388
I19
sS'snowed'
p389
I276
sS'fresh'
p390
I54
sS'the'
p391
I15
sS'left'
p392
I280
sS'make'
p393
I135
sS'buriest'
p394
I63
ssS'hmm_couplets'
p395
(lp396
sS'couplets'
p397
(lp398
(lp399
g222
aS'the'
p400
ag147
ag238
ag285
ag301
ag387
ag201
aS'to'
p401
ag294
aS'the'
p402
aS"world's"
p403
ag260
aS'by'
p404
aS'the'
p405
ag374
aS'and'
p406
ag137
aa(lp407
S'this'
p408
aS'were'
p409
aS'to'
p410
aS'be'
p411
ag199
ag298
aS'when'
p412
aS'thou'
p413
aS'art'
p414
aS'old'
p415
aS'and'
p416
ag178
aS'thy'
p417
ag370
ag288
aS'when'
p418
aS'thou'
p419
ag262
ag198
ag108
aa(lp420
S'but'
p421
aS'if'
p422
aS'thou'
p423
ag264
ag207
aS'not'
p424
aS'to'
p425
aS'be'
p426
aS'die'
p427
ag259
aS'and'
p428
aS'thine'
p429
ag244
ag197
aS'with'
p430
aS'thee'
p431
aa(lp432
S'thy'
p433
ag368
aS'beauty'
p434
ag127
aS'be'
p435
ag237
aS'with'
p436
aS'thee'
p437
ag350
ag357
ag289
ag141
ag349
aS'to'
p438
aS'be'
p439
aa(lp440
S'but'
p441
ag99
ag351
ag161
ag144
aS'with'
p442
aS'winter'
p443
ag216
ag277
aS'but'
p444
ag263
ag268
aS'their'
p445
ag225
ag109
aS'lives'
p446
aS'sweet'
p447
aasS'lines'
p448
(lp449
(lp450
g255
ag272
ag184
ag202
ag152
ag113
aa(lp451
g280
ag134
ag325
ag116
ag128
ag209
ag156
aa(lp452
g284
ag328
ag391
ag308
ag119
ag220
ag388
ag168
aa(lp453
g132
ag183
ag283
aS'might'
p454
ag139
aS'his'
p455
ag267
aa(lp456
S'but'
p457
ag228
ag189
ag120
ag235
ag240
ag104
ag276
aa(lp458
g153
ag379
ag252
ag310
ag293
ag343
ag329
ag126
aa(lp459
g314
ag376
ag177
ag165
ag297
ag248
aa(lp460
S'thy'
p461
aS'self'
p462
aS'thy'
p463
ag193
aS'to'
p464
aS'thy'
p465
ag243
aS'self'
p466
ag266
ag309
aa(lp467
S'thou'
p468
aS'that'
p469
ag170
ag148
aS'the'
p470
ag247
ag390
ag190
aa(lp471
g318
ag121
ag159
aS'to'
p472
aS'the'
p473
ag275
ag172
aa(lp474
g245
aS'thine'
p475
aS'own'
p476
ag295
ag394
aS'thy'
p477
ag192
aa(lp478
S'and'
p479
aS'tender'
p480
ag332
ag331
ag270
ag322
ag305
aa(lp481
g222
ag400
ag147
ag238
ag285
ag301
ag387
ag201
aa(lp482
g401
ag294
ag402
ag403
ag260
ag404
ag405
ag374
ag406
ag137
aa(lp483
g344
ag191
ag373
ag311
ag360
aS'thy'
p484
ag321
aa(lp485
S'and'
p486
ag157
ag290
ag261
aS'in'
p487
aS'thy'
p488
aS"beauty's"
p489
ag348
aa(lp490
S'thy'
p491
ag381
ag383
ag326
ag386
ag241
ag223
aS'now'
p492
aa(lp493
g307
aS'be'
p494
aS'a'
p495
ag291
ag367
ag229
ag163
ag129
ag103
aa(lp496
g131
ag97
ag384
aS'where'
p497
ag95
aS'thy'
p498
ag359
aS'lies'
p499
aa(lp500
S'where'
p501
aS'all'
p502
aS'the'
p503
ag117
aS'of'
p504
aS'thy'
p505
ag354
ag231
aa(lp506
S'to'
p507
ag304
aS'within'
p508
aS'thine'
p509
aS'own'
p510
aS'deep'
p511
ag340
aS'eyes'
p512
aa(lp513
g312
ag292
aS'all'
p514
ag204
ag327
aS'and'
p515
ag347
ag205
aa(lp516
g115
ag265
ag273
aS'praise'
p517
ag227
aS'thy'
p518
aS"beauty's"
p519
ag253
aa(lp520
g336
aS'thou'
p521
ag98
ag352
ag211
ag171
ag100
aS'of'
p522
ag324
aa(lp523
S'shall'
p524
ag188
ag316
ag112
aS'and'
p525
ag393
aS'my'
p526
ag251
ag378
aa(lp527
g362
aS'his'
p528
aS'beauty'
p529
aS'by'
p530
ag162
aS'thine'
p531
aa(lp532
g408
ag409
ag410
ag411
ag199
ag298
ag412
ag413
ag414
ag415
aa(lp533
g416
ag178
ag417
ag370
ag288
ag418
ag419
ag262
ag198
ag108
aa(lp534
g299
aS'in'
p535
aS'thy'
p536
ag286
aS'and'
p537
ag306
aS'the'
p538
ag333
aS'thou'
p539
ag111
aa(lp540
S'now'
p541
ag151
aS'the'
p542
aS'time'
p543
aS'that'
p544
aS'face'
p545
aS'should'
p546
ag279
ag249
aa(lp547
g206
aS'fresh'
p548
ag239
aS'if'
p549
aS'now'
p550
aS'thou'
p551
ag146
ag256
aa(lp552
S'thou'
p553
ag195
ag158
aS'the'
p554
aS'world'
p555
ag278
ag174
ag364
aa(lp556
g187
aS'where'
p557
aS'is'
p558
ag160
aS'so'
p559
aS'fair'
p560
aS'whose'
p561
ag221
ag200
aa(lp562
g219
aS'the'
p563
ag124
aS'of'
p564
aS'thy'
p565
ag353
aa(lp566
S'or'
p567
ag203
aS'is'
p568
ag296
aS'so'
p569
ag233
aS'will'
p570
aS'be'
p571
aS'the'
p572
ag236
aa(lp573
S'of'
p574
aS'his'
p575
aS'self'
p576
ag107
aS'to'
p577
ag138
ag217
aa(lp578
S'thou'
p579
aS'art'
p580
aS'thy'
p581
ag380
aS'glass'
p582
aS'and'
p583
aS'she'
p584
aS'in'
p585
aS'thee'
p586
aa(lp587
g164
ag175
aS'the'
p588
ag180
ag234
aS'of'
p589
ag257
ag342
aa(lp590
S'so'
p591
aS'thou'
p592
ag105
ag215
aS'of'
p593
aS'thine'
p594
ag382
ag375
aS'see'
p595
aa(lp596
g145
aS'of'
p597
ag232
aS'this'
p598
aS'thy'
p599
ag96
aS'time'
p600
aa(lp601
g421
ag422
ag423
ag264
ag207
ag424
ag425
ag426
aa(lp602
g427
ag259
ag428
ag429
ag244
ag197
ag430
ag431
aa(lp603
g242
ag169
ag363
aS'dost'
p604
aS'thou'
p605
ag166
aa(lp606
g365
aS'thy'
p607
aS'self'
p608
aS'thy'
p609
aS"beauty's"
p610
ag179
aa(lp611
g182
ag372
ag315
ag371
aS'but'
p612
ag114
ag106
aa(lp613
S'and'
p614
aS'being'
p615
ag208
aS'she'
p616
ag167
aS'to'
p617
ag313
ag181
ag274
aa(lp618
S'then'
p619
ag125
ag385
aS'why'
p620
aS'dost'
p621
aS'thou'
p622
ag369
aa(lp623
S'the'
p624
ag335
ag136
ag210
aS'thee'
p625
aS'to'
p626
ag320
aa(lp627
g254
ag226
aS'why'
p628
aS'dost'
p629
aS'thou'
p630
aS'use'
p631
aa(lp632
S'so'
p633
ag224
aS'a'
p634
aS'sum'
p635
aS'of'
p636
ag377
ag110
ag246
aS'not'
p637
aS'live'
p638
aa(lp639
S'for'
p640
ag150
ag143
aS'with'
p641
aS'thy'
p642
aS'self'
p643
ag334
aa(lp644
S'thou'
p645
aS'of'
p646
aS'thy'
p647
aS'self'
p648
aS'thy'
p649
aS'sweet'
p650
aS'self'
p651
aS'dost'
p652
ag358
aa(lp653
S'then'
p654
aS'how'
p655
aS'when'
p656
ag317
aS'calls'
p657
aS'thee'
p658
aS'to'
p659
aS'be'
p660
ag319
aa(lp661
g186
ag281
ag287
aS'canst'
p662
aS'thou'
p663
ag185
aa(lp664
g433
ag368
ag434
ag127
ag435
ag237
ag436
ag437
aa(lp665
g350
ag357
ag289
ag141
ag349
ag438
ag439
aa(lp666
S'those'
p667
ag213
aS'that'
p668
aS'with'
p669
ag300
ag303
ag155
ag173
aa(lp670
S'the'
p671
aS'lovely'
p672
ag337
aS'where'
p673
ag196
ag218
aS'doth'
p674
ag269
aa(lp675
S'will'
p676
ag356
aS'the'
p677
ag133
aS'to'
p678
aS'the'
p679
ag135
ag346
aa(lp680
S'and'
p681
aS'that'
p682
ag101
aS'which'
p683
ag355
aS'doth'
p684
ag345
aa(lp685
S'for'
p686
aS'never'
p687
ag361
aS'time'
p688
ag102
ag94
aS'on'
p689
aa(lp690
S'to'
p691
ag302
ag339
aS'and'
p692
ag194
ag176
ag258
aa(lp693
g338
ag130
aS'with'
p694
ag282
aS'and'
p695
aS'lusty'
p696
ag230
ag212
aS'gone'
p697
aa(lp698
S'beauty'
p699
ag330
ag389
aS'and'
p700
ag154
aS'every'
p701
aS'where'
p702
aa(lp703
S'then'
p704
aS'were'
p705
aS'not'
p706
ag118
ag323
ag392
aa(lp707
S'a'
p708
ag122
ag123
ag214
aS'in'
p709
ag142
aS'of'
p710
aS'glass'
p711
aa(lp712
S"beauty's"
p713
ag366
aS'with'
p714
aS'beauty'
p715
aS'were'
p716
ag140
aa(lp717
g149
aS'it'
p718
aS'nor'
p719
ag341
ag250
aS'what'
p720
aS'it'
p721
ag271
aa(lp722
g441
ag99
ag351
ag161
ag144
ag442
ag443
ag216
aa(lp723
g277
ag444
ag263
ag268
ag445
ag225
ag109
ag446
ag447
aasS'word_count'
p724
I301
sS'stanzas'
p725
(lp726
(lp727
g255
ag272
ag184
ag202
ag152
ag113
ag280
ag134
ag325
ag116
ag128
ag209
ag156
ag284
ag328
ag391
ag308
ag119
ag220
ag388
ag168
ag132
ag183
ag283
ag454
ag139
ag455
ag267
aa(lp728
g457
ag228
ag189
ag120
ag235
ag240
ag104
ag276
ag153
ag379
ag252
ag310
ag293
ag343
ag329
ag126
ag314
ag376
ag177
ag165
ag297
ag248
ag461
ag462
ag463
ag193
ag464
ag465
ag243
ag466
ag266
ag309
aa(lp729
g468
ag469
ag170
ag148
ag470
ag247
ag390
ag190
ag318
ag121
ag159
ag472
ag473
ag275
ag172
ag245
ag475
ag476
ag295
ag394
ag477
ag192
ag479
ag480
ag332
ag331
ag270
ag322
ag305
aa(lp730
g344
ag191
ag373
ag311
ag360
ag484
ag321
ag486
ag157
ag290
ag261
ag487
ag488
ag489
ag348
ag491
ag381
ag383
ag326
ag386
ag241
ag223
ag492
ag307
ag494
ag495
ag291
ag367
ag229
ag163
ag129
ag103
aa(lp731
g131
ag97
ag384
ag497
ag95
ag498
ag359
ag499
ag501
ag502
ag503
ag117
ag504
ag505
ag354
ag231
ag507
ag304
ag508
ag509
ag510
ag511
ag340
ag512
ag312
ag292
ag514
ag204
ag327
ag515
ag347
ag205
aa(lp732
g115
ag265
ag273
ag517
ag227
ag518
ag519
ag253
ag336
ag521
ag98
ag352
ag211
ag171
ag100
ag522
ag324
ag524
ag188
ag316
ag112
ag525
ag393
ag526
ag251
ag378
ag362
ag528
ag529
ag530
ag162
ag531
aa(lp733
g299
ag535
ag536
ag286
ag537
ag306
ag538
ag333
ag539
ag111
ag541
ag151
ag542
ag543
ag544
ag545
ag546
ag279
ag249
ag206
ag548
ag239
ag549
ag550
ag551
ag146
ag256
ag553
ag195
ag158
ag554
ag555
ag278
ag174
ag364
aa(lp734
g187
ag557
ag558
ag160
ag559
ag560
ag561
ag221
ag200
ag219
ag563
ag124
ag564
ag565
ag353
ag567
ag203
ag568
ag296
ag569
ag233
ag570
ag571
ag572
ag236
ag574
ag575
ag576
ag107
ag577
ag138
ag217
aa(lp735
g579
ag580
ag581
ag380
ag582
ag583
ag584
ag585
ag586
ag164
ag175
ag588
ag180
ag234
ag589
ag257
ag342
ag591
ag592
ag105
ag215
ag593
ag594
ag382
ag375
ag595
ag145
ag597
ag232
ag598
ag599
ag96
ag600
aa(lp736
g242
ag169
ag363
ag604
ag605
ag166
ag365
ag607
ag608
ag609
ag610
ag179
ag182
ag372
ag315
ag371
ag612
ag114
ag106
ag614
ag615
ag208
ag616
ag167
ag617
ag313
ag181
ag274
aa(lp737
g619
ag125
ag385
ag620
ag621
ag622
ag369
ag624
ag335
ag136
ag210
ag625
ag626
ag320
ag254
ag226
ag628
ag629
ag630
ag631
ag633
ag224
ag634
ag635
ag636
ag377
ag110
ag246
ag637
ag638
aa(lp738
g640
ag150
ag143
ag641
ag642
ag643
ag334
ag645
ag646
ag647
ag648
ag649
ag650
ag651
ag652
ag358
ag654
ag655
ag656
ag317
ag657
ag658
ag659
ag660
ag319
ag186
ag281
ag287
ag662
ag663
ag185
aa(lp739
g667
ag213
ag668
ag669
ag300
ag303
ag155
ag173
ag671
ag672
ag337
ag673
ag196
ag218
ag674
ag269
ag676
ag356
ag677
ag133
ag678
ag679
ag135
ag346
ag681
ag682
ag101
ag683
ag355
ag684
ag345
aa(lp740
g686
ag687
ag361
ag688
ag102
ag94
ag689
ag691
ag302
ag339
ag692
ag194
ag176
ag258
ag338
ag130
ag694
ag282
ag695
ag696
ag230
ag212
ag697
ag699
ag330
ag389
ag700
ag154
ag701
ag702
aa(lp741
g704
ag705
ag706
ag118
ag323
ag392
ag708
ag122
ag123
ag214
ag709
ag142
ag710
ag711
ag713
ag366
ag714
ag715
ag716
ag140
ag149
ag718
ag719
ag341
ag250
ag720
ag721
ag271
aasS'num_to_word'
p742
(lp743
g255
ag272
ag184
ag202
ag152
ag113
ag280
ag134
ag325
ag116
ag128
ag209
ag156
ag284
ag328
ag391
ag308
ag119
ag220
ag388
ag168
ag132
ag183
ag283
ag139
ag267
ag228
ag189
ag120
ag235
ag240
ag104
ag276
ag153
ag379
ag252
ag310
ag293
ag343
ag329
ag126
ag314
ag376
ag177
ag165
ag297
ag248
ag193
ag243
ag266
ag309
ag170
ag148
ag247
ag390
ag190
ag318
ag121
ag159
ag275
ag172
ag245
ag295
ag394
ag192
ag332
ag331
ag270
ag322
ag305
ag222
ag147
ag238
ag285
ag301
ag387
ag201
ag294
ag260
ag374
ag137
ag344
ag191
ag373
ag311
ag360
ag321
ag157
ag290
ag261
ag348
ag381
ag383
ag326
ag386
ag241
ag223
ag307
ag291
ag367
ag229
ag163
ag129
ag103
ag131
ag97
ag384
ag95
ag359
ag117
ag354
ag231
ag304
ag340
ag312
ag292
ag204
ag327
ag347
ag205
ag115
ag265
ag273
ag227
ag253
ag336
ag98
ag352
ag211
ag171
ag100
ag324
ag188
ag316
ag112
ag393
ag251
ag378
ag362
ag162
ag199
ag298
ag178
ag370
ag288
ag262
ag198
ag108
ag299
ag286
ag306
ag333
ag111
ag151
ag279
ag249
ag206
ag239
ag146
ag256
ag195
ag158
ag278
ag174
ag364
ag187
ag160
ag221
ag200
ag219
ag124
ag353
ag203
ag296
ag233
ag236
ag107
ag138
ag217
ag380
ag164
ag175
ag180
ag234
ag257
ag342
ag105
ag215
ag382
ag375
ag145
ag232
ag96
ag264
ag207
ag259
ag244
ag197
ag242
ag169
ag363
ag166
ag365
ag179
ag182
ag372
ag315
ag371
ag114
ag106
ag208
ag167
ag313
ag181
ag274
ag125
ag385
ag369
ag335
ag136
ag210
ag320
ag254
ag226
ag224
ag377
ag110
ag246
ag150
ag143
ag334
ag358
ag317
ag319
ag186
ag281
ag287
ag185
ag368
ag127
ag237
ag350
ag357
ag289
ag141
ag349
ag213
ag300
ag303
ag155
ag173
ag337
ag196
ag218
ag269
ag356
ag133
ag135
ag346
ag101
ag355
ag345
ag361
ag102
ag94
ag302
ag339
ag194
ag176
ag258
ag338
ag130
ag282
ag230
ag212
ag330
ag389
ag154
ag118
ag323
ag392
ag122
ag123
ag214
ag142
ag366
ag140
ag149
ag341
ag250
ag271
ag99
ag351
ag161
ag144
ag216
ag277
ag263
ag268
ag225
ag109
asS'sonnets'
p744
(lp745
(lp746
g450
ag451
ag452
ag453
ag456
ag458
ag459
ag460
ag467
ag471
ag474
ag478
ag481
ag482
aa(lp747
g483
ag485
ag490
ag493
ag496
ag500
ag506
ag513
ag516
ag520
ag523
ag527
ag532
ag533
aa(lp748
g534
ag540
ag547
ag552
ag556
ag562
ag566
ag573
ag578
ag587
ag590
ag596
ag601
ag602
aa(lp749
g603
ag606
ag611
ag613
ag618
ag623
ag627
ag632
ag639
ag644
ag653
ag661
ag664
ag665
aa(lp750
g666
ag670
ag675
ag680
ag685
ag690
ag693
ag698
ag703
ag707
ag712
ag717
ag722
ag723
aasS'hmm_sonnets'
p751
(lp752
sbsS'L'
p753
I10
sS'O'
p754
(lp755
(lp756
F7.797820516856618e-09
aF3.829803093380417e-09
aF2.148572828313566e-13
aF2.1638953488921637e-21
aF1.8767740142873683e-12
aF3.10454345910537e-16
aF0.012404278755573366
aF0.004399263377224392
aF0.0009869416736419075
aF8.484921871905458e-09
aF7.34354419462149e-05
aF5.996198085191464e-13
aF5.913523002752055e-06
aF0.029108804290578195
aF9.984678104980132e-08
aF0.00018765433919626397
aF6.498412654789138e-14
aF7.570321743387691e-05
aF3.808584626829693e-12
aF0.004054898649374527
aF6.410621139310853e-07
aF0.06763551315087037
aF5.06928046334946e-07
aF4.015475599537042e-15
aF4.470515013833842e-18
aF9.74575753798486e-07
aF0.0076208176694438495
aF8.680822235693163e-05
aF3.7356428718823136e-06
aF0.00044832656747301674
aF0.00011706381261626487
aF9.458930537922343e-07
aF1.970740337287003e-11
aF0.012857038268917025
aF0.22430932824786642
aF6.284438809834014e-08
aF0.002494570398270084
aF0.03239516804957306
aF0.00016295958779319688
aF8.704091182113792e-08
aF0.00014049431508702487
aF0.010702010862998183
aF0.0006657997548961756
aF3.5560455188110354e-11
aF0.00037048097290149094
aF3.657611660828517e-10
aF0.0010013422569770253
aF1.335984950144532e-06
aF4.941810692400711e-05
aF2.7020563126202054e-06
aF0.012392804627131961
aF0.0006384558156186369
aF0.0005758340751753244
aF2.8647471524987364e-10
aF4.626309648893601e-06
aF2.8433452768462112e-11
aF0.0018601632426594713
aF2.401159391541247e-13
aF4.072579495733512e-09
aF3.047040380813836e-11
aF3.0800197100963133e-10
aF0.0005828642227623348
aF1.8378993489932114e-07
aF0.02574734746595118
aF1.8563482978921073e-06
aF9.614679232728459e-18
aF0.00023763220132150527
aF8.664055958045229e-13
aF2.3386387652706618e-08
aF0.00028256168489175563
aF1.9979914909764743e-05
aF0.00033928469919823227
aF0.041156265615983345
aF7.118460327367124e-07
aF0.02720998954590079
aF4.172538256971457e-09
aF0.000888291954567028
aF1.5814256726863406e-06
aF4.03482469464692e-08
aF1.5181645940959759e-12
aF3.159947551822729e-05
aF7.314246088116311e-05
aF5.349750366842029e-20
aF7.803720338226773e-07
aF9.660210367359718e-08
aF1.1643891972191923e-07
aF2.410658259010609e-06
aF5.702785714709837e-11
aF3.617642196126091e-11
aF2.5086001535002506e-10
aF6.262437050776169e-06
aF1.6318921258847723e-08
aF8.491798075868495e-05
aF7.327851615719069e-08
aF0.004426469032994548
aF1.4346519380569855e-11
aF0.027721279457180132
aF3.8754758672662745e-12
aF2.367024845509641e-09
aF0.013845984219596125
aF0.11558802083747446
aF2.7508713692366087e-10
aF0.00384644484924631
aF2.3247980016125632e-06
aF0.0006985304281627654
aF2.5906001905008644e-07
aF7.127785015971708e-14
aF5.116646739400295e-08
aF5.571501180307146e-05
aF5.376364419233571e-06
aF4.5150553483569747e-07
aF1.1206189308134686e-06
aF0.023458916023474823
aF1.8277213043790878e-06
aF5.289312329443288e-06
aF4.259691539208603e-07
aF3.6952897420481535e-14
aF4.44998866335702e-18
aF8.426926892176797e-13
aF0.000536556708286113
aF1.4609535617919325e-06
aF2.2239796480655066e-05
aF4.123843988537197e-12
aF5.638354933002363e-07
aF0.0009592079088569627
aF0.001232692279014089
aF1.2970718922991617e-07
aF2.50415462998788e-22
aF1.2001622399035772e-13
aF3.107411782953277e-11
aF1.755915460256677e-07
aF2.920786919429723e-06
aF1.888652734641479e-07
aF3.051543062154552e-09
aF5.988551829213758e-23
aF3.5798305198867667e-16
aF1.9396165777654514e-08
aF0.007785969278356754
aF4.605046257628312e-07
aF0.0067742548336022545
aF1.4369005121717046e-12
aF1.568066648914723e-14
aF4.42966402529107e-05
aF1.7351473028015977e-12
aF3.277553950969779e-08
aF2.4256318640625336e-08
aF2.4230591321451336e-14
aF4.3881975354731433e-08
aF3.244460442852626e-06
aF3.681745051129447e-08
aF7.443264772593598e-11
aF0.00044116148106169403
aF0.0038883624149751556
aF1.1669307622353275e-08
aF1.4627601803659607e-14
aF0.002155377254084604
aF5.754718786849492e-10
aF7.964659249878953e-08
aF0.0007450788655165423
aF0.006362880451039481
aF2.7696733767130343e-05
aF4.693605446150949e-07
aF5.614171485232831e-10
aF3.673484100345414e-19
aF1.5961378176424255e-06
aF3.164502602344562e-05
aF0.00039346548513967216
aF1.3916326159054851e-12
aF5.88037577039408e-11
aF2.8781222872410388e-05
aF0.0035032124837503635
aF2.932743750026809e-06
aF5.237551265985376e-07
aF5.633965161026118e-08
aF4.486752865745278e-09
aF3.604883544733333e-07
aF0.00029736173360733314
aF8.68500391628483e-08
aF5.327429316793687e-07
aF1.2750762715950783e-09
aF0.04319845717612734
aF8.413682355631118e-07
aF7.601364626118549e-10
aF8.054164994879267e-10
aF1.0607196180120752e-16
aF5.177001742672342e-07
aF0.00018466075221342237
aF0.0137913525921169
aF9.340659413239888e-08
aF0.00020972285699217188
aF0.0012730991810952477
aF0.00031201566567165106
aF3.0550361049442356e-07
aF0.005047390461103654
aF0.014960274545040191
aF7.776490174888789e-13
aF7.203470545422664e-08
aF5.871871687116092e-16
aF0.02236997140967904
aF2.5483300102735197e-06
aF1.6865656371846474e-05
aF0.0007800100752065832
aF0.010264626185767123
aF1.6915536562500507e-06
aF0.0006595582431098848
aF0.02494046045101506
aF1.3187086714718293e-07
aF2.5838133512612335e-07
aF3.1063107665285005e-09
aF0.006011972823551131
aF2.7493089927370695e-16
aF2.8122459155323285e-12
aF6.549446845233131e-05
aF1.790124467323586e-17
aF1.9086682851496915e-08
aF1.8557570445892173e-11
aF0.01867583795867834
aF0.000642378437824745
aF2.2829555069004476e-08
aF8.401455701073292e-09
aF2.8432253951622902e-05
aF0.00031372722213898226
aF1.915222495810083e-05
aF0.026051155211458055
aF5.444743575976482e-06
aF4.251456614300234e-06
aF2.8520681601783705e-09
aF0.0012066314508887598
aF3.761113279214043e-11
aF0.00011170030167252415
aF2.6969016888715167e-05
aF1.89275680910241e-05
aF4.842964265248618e-13
aF4.1741210565501917e-05
aF3.679127701888589e-05
aF3.712577568467567e-05
aF9.261096845677964e-08
aF0.0008390287589278619
aF0.000698546589136665
aF7.596476973651375e-16
aF1.2620412102601626e-11
aF5.485678457028332e-05
aF0.00046346046286745835
aF0.027658905715349485
aF2.922539977169437e-09
aF6.822234489135365e-05
aF4.359473287073272e-05
aF1.1074504249713771e-13
aF2.1086501719116178e-12
aF8.49831058303918e-15
aF3.7603611740879856e-06
aF7.976859855392124e-16
aF2.309566980522154e-14
aF3.2220611569183427e-06
aF0.002877786273857963
aF4.407386054278719e-10
aF5.6897908944373406e-08
aF2.520662486524683e-07
aF7.798937287824705e-08
aF5.589646963559606e-07
aF0.0020982746653615885
aF0.0033170795420202357
aF6.683889231291893e-06
aF6.414510365427956e-10
aF3.779217295095954e-06
aF2.872397333061821e-10
aF1.9087569316639765e-14
aF1.1419753673649893e-14
aF3.457145219614058e-17
aF1.3546327174645638e-08
aF0.00017924187591047722
aF7.020205419500717e-08
aF9.521140701379352e-17
aF4.761974526501811e-10
aF0.0067237936388774245
aF9.803790207711242e-15
aF6.330916465766691e-13
aF1.6570939339099358e-12
aF5.414267018298469e-05
aF2.9503628244018884e-11
aF0.005752543588758929
aF5.8178108375571e-12
aF0.0010315839153252487
aF4.203156325880479e-11
aF2.3253993817286867e-05
aF6.3293850786008064e-09
aF0.007319442811286676
aF8.960581812243156e-11
aF1.6019478592487655e-24
aF3.759701319067458e-09
aF5.20430989021238e-07
aF6.308513659827949e-11
aF4.551323783123189e-11
aF3.5783150700723353e-13
aF4.558355637759737e-22
aF8.429507686816884e-07
aF3.486412232401422e-05
aF5.231586356608881e-08
aF2.4372294880666034e-06
aF1.6439928388482508e-05
aF2.3955955201795123e-08
aa(lp757
F4.848037220095893e-06
aF3.5994677366303097e-13
aF4.487533609739021e-08
aF8.696032060377405e-15
aF1.3235640334644522e-13
aF1.4164375783174492e-09
aF0.024875913919570784
aF2.329471897636735e-05
aF0.007259276019028235
aF8.07760127718841e-08
aF1.0780537221465e-08
aF8.222627197501318e-10
aF2.9940335638180238e-05
aF0.03103762252814
aF1.8089402050512124e-05
aF0.0006299408534873668
aF1.792662394130868e-08
aF1.8363995022011415e-08
aF3.1587687037327854e-06
aF0.006116822823065517
aF0.01417253783456351
aF1.1027157657621018e-05
aF0.004949772937488782
aF4.2670119350557734e-13
aF7.485094091881676e-13
aF0.02160486487785628
aF0.006652569332687718
aF2.0019747924517118e-06
aF1.247074926454323e-05
aF0.004380801058725496
aF7.007795847393469e-06
aF1.6067312290941015e-05
aF0.002826386172210286
aF6.101791651498958e-06
aF0.04834487496570725
aF0.00013241718010059426
aF4.0892886169430463e-10
aF0.0005886671611702993
aF0.009594619458835454
aF3.47187970988464e-07
aF3.911524234083942e-07
aF9.462941188487835e-05
aF0.005085698497642004
aF2.2088115849120314e-10
aF9.967659139215266e-06
aF0.00011770392474325634
aF1.6263057562728e-06
aF0.020044968493689932
aF0.0007203587706934217
aF2.5174600856047927e-09
aF1.7776387600348602e-07
aF2.9167524095532157e-05
aF0.03775205623238217
aF9.61954478166222e-10
aF2.570771453590649e-07
aF2.1165074944685124e-06
aF7.402135446148141e-05
aF2.1987494200167862e-10
aF1.45717315711665e-09
aF1.3666936744402245e-08
aF4.3860663606449754e-07
aF0.012744553363648764
aF1.032206485509734e-08
aF5.752435233937772e-12
aF0.00013590925897764608
aF1.9542254847940998e-11
aF6.387769277124402e-13
aF0.027898887742599302
aF6.924759121064964e-07
aF1.9531319039487422e-08
aF0.016165288213668586
aF7.416691850037978e-08
aF1.5825063807152428e-05
aF1.88846869587397e-06
aF0.0030545840798161974
aF2.558530669898171e-07
aF5.468481825137387e-09
aF3.942838126595461e-08
aF2.6626050017911463e-05
aF3.1020318721196385e-09
aF0.09818802721642808
aF5.4152019063637014e-05
aF7.214206667605362e-15
aF4.3535615121957067e-14
aF0.017428190747396648
aF3.152263587220525e-08
aF0.0036676317581644273
aF7.189490133493203e-06
aF1.2108063975137365e-05
aF0.0001215056890002654
aF2.753744867510457e-05
aF2.1632629189284514e-05
aF9.053796041676361e-09
aF1.9038467163893198e-06
aF0.003392405242061385
aF5.490321026894518e-07
aF6.44856605456289e-09
aF4.169073652388655e-10
aF8.016422020527576e-09
aF1.2038832585621521e-10
aF0.03602083677545801
aF2.4168909025916534e-11
aF1.680261052260911e-09
aF0.00027975667844005314
aF0.05586740543540228
aF0.01929688266345942
aF7.221854785434526e-09
aF4.8859601962910976e-05
aF0.10562585724634943
aF7.111239758249702e-06
aF0.001143584870032356
aF7.159036583300252e-08
aF4.218062284389004e-09
aF1.0444204508783042e-08
aF0.07985480884201462
aF1.3734321285925493e-07
aF3.854504174515457e-07
aF2.5351164926969304e-12
aF5.52448980171462e-07
aF5.850542183577326e-09
aF2.4643133110204253e-05
aF2.4795305109419943e-07
aF6.786399239747055e-07
aF4.310463881656105e-08
aF2.6248514872371707e-07
aF0.0017644228461460335
aF3.603295496829409e-07
aF4.642421452651031e-14
aF7.612841991537183e-14
aF1.2151312847006638e-05
aF3.60328147614456e-10
aF0.0007836880784881995
aF3.1748938206561387e-09
aF1.2597807396636924e-11
aF5.438618195263874e-15
aF8.698705291815812e-10
aF3.988758641435373e-05
aF1.0635717503371809e-10
aF9.23403290239768e-08
aF1.2252377702951322e-09
aF4.249762482886131e-07
aF1.9289787218860335e-14
aF0.005474801800766634
aF4.000907041498059e-05
aF1.0880380870586553e-12
aF2.436972474110001e-11
aF8.458933381852038e-09
aF1.005072317364138e-11
aF0.02122847137480686
aF1.6331841390860757e-06
aF0.0005291697199132081
aF6.502546468750346e-06
aF9.748638418355908e-06
aF1.1038583665018963e-06
aF1.4299449613868705e-07
aF2.4663614471478468e-11
aF2.454099818106663e-10
aF1.225680131535066e-05
aF0.030900034091640962
aF0.000169723513162021
aF4.0155597383890806e-07
aF5.575133364417649e-06
aF4.894843100183461e-11
aF1.060004709358754e-13
aF3.331680383309548e-10
aF0.06970888546687526
aF1.769518946754748e-05
aF4.908795687992384e-12
aF5.1655517770001915e-05
aF0.0131993615005212
aF5.828046404052603e-07
aF7.424613818929549e-05
aF0.003491724873575909
aF5.7822458793780626e-12
aF3.3393638566438615e-05
aF2.467492442185277e-07
aF0.01994393686625134
aF2.38660140269678e-13
aF0.00013449552394085684
aF0.0018330932546977694
aF0.003005506870533973
aF0.015391706338747741
aF1.0048843946818957e-07
aF1.217503963924952e-07
aF3.793579705753712e-12
aF4.815292871152711e-10
aF5.496180237715813e-09
aF4.099281708868556e-07
aF1.5170925950187352e-07
aF3.653234094864852e-08
aF5.327273779579673e-06
aF1.4101234460778833e-07
aF3.5134635985666335e-06
aF2.5886517422459275e-07
aF0.00012766899079586855
aF2.179546493653862e-08
aF1.7689466090400683e-05
aF2.3586171550083786e-12
aF1.0034920629329197e-05
aF8.11714823478815e-08
aF1.9078519942132436e-06
aF9.88602421303805e-07
aF2.918447995686886e-06
aF1.5644760326454477e-06
aF3.06055575685337e-07
aF1.0654292706838792e-10
aF2.5976894583846365e-05
aF2.6493210210374853e-10
aF9.674662659318242e-05
aF4.914466478009044e-09
aF3.907311248736759e-09
aF0.027891237834102193
aF0.0003295248502585904
aF8.057641682150745e-14
aF3.548445591199489e-11
aF1.9777811016590776e-13
aF1.1037841785749972e-12
aF2.0833077239493204e-06
aF3.7263798105048565e-06
aF1.873497500186374e-08
aF0.0001514793718835406
aF9.593996492150423e-08
aF2.282010624875472e-09
aF8.095727282168747e-12
aF2.222795681787771e-06
aF0.00011851354705262261
aF3.336312627750982e-09
aF8.178048625455291e-08
aF1.4558444757747233e-10
aF2.309098842223538e-10
aF8.319768248374121e-07
aF2.288362514340461e-06
aF1.1848972185831738e-10
aF0.0008960986005383197
aF0.008337818700640667
aF0.00020468452350229396
aF1.409551226265344e-07
aF2.420935491381942e-07
aF0.0004747965577690931
aF1.0030639427391995e-10
aF3.2460199067820223e-07
aF3.302624570659332e-05
aF1.5498210975464945e-08
aF0.0028496180104566103
aF1.7790636600560498e-08
aF2.622195131675545e-08
aF1.5913703286362105e-05
aF5.86133328532194e-09
aF4.8225070599351384e-14
aF1.71341910893464e-10
aF1.7760483641183703e-10
aF3.8131906072850246e-11
aF1.1473703306786162e-13
aF7.71518519118097e-09
aF2.3658732644719546e-09
aF2.2774468744824423e-11
aF9.567657360857028e-05
aF7.628830900242724e-09
aF0.0025180271764165935
aF0.003230398077587378
aF2.118582086667029e-06
aF6.843428865943598e-09
aF1.0733268780203762e-08
aF0.004244941926269399
aF1.4543630163797199e-10
aF3.5093085135299726e-10
aF8.884066140264571e-08
aF4.842391306412509e-06
aF2.6271020397827775e-17
aF1.031558797610887e-12
aF0.0033533114832746394
aF6.511090571144951e-07
aF1.763132259467095e-10
aF5.006019431869646e-10
aF7.748857503612801e-11
aF1.2909392295566245e-07
aF1.4006030991204836e-13
aF2.2890647092810277e-05
aF2.7014296923046415e-05
aF5.3128758467434485e-08
aF6.198049824482276e-10
aF2.759592077529621e-09
aF4.839861986376409e-14
aF0.027897952258475602
aF2.319010653592874e-10
aF6.192337957938082e-08
aF9.572157322985419e-07
aF1.8490518356597973e-06
aF3.78717073690808e-17
aF1.0873770776676828e-11
aF1.6065500532251697e-10
aF5.510188110834047e-05
aF4.930222262635329e-16
aF5.2555240494125185e-12
aF8.594621214774848e-14
aF7.640754041313609e-10
aF0.0006864221664358198
aF2.8872099591277053e-06
aF1.2690348092289772e-08
aF2.2807275281586497e-07
aF1.450930724224432e-06
aa(lp758
F2.1045066327294595e-08
aF7.370816567188585e-08
aF3.8907422768709465e-14
aF7.986894082713025e-19
aF9.825250798442619e-15
aF6.608794624716843e-16
aF0.039558596674585354
aF0.0010360142129737704
aF0.0008159933534775678
aF1.1939285592015464e-05
aF1.6969489362635714e-08
aF1.0938777268762649e-09
aF1.5971188993241542e-06
aF0.02550922955922903
aF0.00012581985707116824
aF0.005124968390829534
aF2.3318625822860257e-06
aF5.543679453897866e-05
aF3.9556996579662474e-05
aF0.00036639682563484294
aF9.3556796379114e-06
aF0.0026911846487820876
aF1.0713966408290916e-06
aF1.4105157128099177e-08
aF6.517521816713695e-13
aF5.247488977648109e-06
aF0.06840761200528393
aF0.0005744705725506187
aF0.0034167663677385617
aF0.016391407707101176
aF0.007779493891357633
aF3.189066640763125e-06
aF2.7960540954484835e-07
aF0.015346654527940163
aF0.0007061850257534186
aF0.0004601192370272799
aF0.03265948673281208
aF7.061796972644247e-05
aF0.00013806608003284786
aF4.926368022008412e-06
aF0.0011323739362773901
aF0.01615071063876916
aF0.006955086941212085
aF2.28260416886127e-06
aF0.0005959158575605888
aF5.616897618661749e-08
aF0.011260252871116495
aF2.6212394452544125e-06
aF0.0001012472929096781
aF0.004467244399262791
aF0.0024067972263227357
aF0.007615916915570797
aF0.005380212294770414
aF4.135967944071734e-09
aF1.980298299394112e-10
aF9.865018754326869e-11
aF0.0003846020742310705
aF2.1788916646231623e-11
aF9.089783952382628e-15
aF1.909133656263683e-15
aF9.308903938296548e-12
aF0.002915997851477446
aF0.009826698288863435
aF0.0009019353537989746
aF0.00012712465935122363
aF2.303691537302462e-08
aF1.708514789456274e-08
aF1.538023244553504e-12
aF3.9973156999835466e-07
aF1.121723511719193e-05
aF0.0074650129097530325
aF0.0019449289170036868
aF2.940751064833282e-05
aF8.155220673782181e-06
aF3.5118962741384e-05
aF5.004406975422668e-07
aF0.00023481054276752625
aF2.665186425353557e-07
aF8.547892683584004e-09
aF2.439241035377046e-08
aF5.591670946936768e-06
aF9.041972806864811e-07
aF8.717326160923644e-18
aF1.3183326701589143e-11
aF3.3616460920762276e-05
aF4.872076487975413e-05
aF9.457535286321803e-06
aF1.4741584025790126e-10
aF7.453003659695492e-05
aF4.3791555472373306e-11
aF3.882425804331707e-05
aF0.0001377176554233175
aF0.000638069835361447
aF6.249485736324513e-05
aF0.003621784403302145
aF8.724511093080716e-07
aF0.0014317768051742442
aF2.471255745190791e-11
aF1.714195799085804e-05
aF0.0013713858412735165
aF0.050364463344195594
aF8.046378841253516e-06
aF5.522355090019227e-07
aF1.5283309975863287e-07
aF0.011674326787109822
aF0.0002920585500564016
aF5.3562004318639025e-06
aF4.43436475540845e-06
aF8.541145085983238e-07
aF2.4806995134861304e-05
aF2.933676188901166e-07
aF3.4285209643455994e-07
aF5.631645213879349e-05
aF3.0940784614042926e-07
aF0.014735590828716725
aF1.5391161946620815e-06
aF2.209067169078028e-12
aF1.9228479610240097e-15
aF1.0701872593349247e-09
aF0.00017356647046207525
aF0.025172015253428822
aF0.0004127732563257602
aF2.824117213672279e-07
aF6.576353230066046e-05
aF0.0024483553022104842
aF0.005374118000922814
aF1.444724095384318e-09
aF1.205869748691378e-20
aF8.376373323279995e-14
aF8.798287217926386e-11
aF4.630033853991616e-09
aF0.0004568221332193656
aF3.7031190697137496e-06
aF4.3505439588890953e-10
aF6.061219760516753e-20
aF1.3672076307996602e-11
aF2.824506977542931e-06
aF0.0003991819203310892
aF0.03731044593063261
aF0.0026693281472035947
aF1.3202500234268178e-12
aF2.2712472943960907e-14
aF2.0663117862711868e-05
aF5.617889559450549e-12
aF4.204477266289706e-07
aF3.277882699434081e-09
aF4.247399763907046e-11
aF2.324902009663574e-08
aF4.2786826798394205e-07
aF6.573260115484996e-07
aF4.048197317316665e-08
aF0.0005445588640124832
aF0.006557413255436935
aF0.00010531279059489418
aF9.821957421826757e-07
aF0.00041798855648966137
aF5.3835770057251486e-08
aF3.260684134010271e-08
aF0.017692876579353874
aF0.014483101638402763
aF1.6610632369895372e-05
aF1.681826935402277e-05
aF1.1269631004229567e-12
aF2.0099318581549433e-17
aF3.653958908296676e-08
aF0.0053107472604705785
aF3.641768387738175e-07
aF6.1960477904005005e-15
aF1.2935492136801774e-09
aF2.155445988721266e-06
aF0.0009781416475962838
aF2.9972180616314555e-05
aF7.519397967578731e-07
aF8.097098882913572e-06
aF2.0064866707185502e-16
aF4.503877227157104e-08
aF1.760389964055633e-07
aF3.948066993882495e-06
aF2.63007584248799e-08
aF3.674711073285074e-10
aF7.346616029234239e-05
aF2.3295156457836179e-07
aF4.8828134574316716e-12
aF2.3905513406179675e-11
aF2.6458390326398126e-16
aF2.6998627913146174e-08
aF0.034524810537103774
aF0.0173574547072781
aF0.0005998621534440516
aF7.562562876738266e-05
aF0.03389748263813604
aF8.352601598520582e-05
aF0.0001710124792837964
aF0.04634746244121419
aF0.0005250974491489554
aF4.685222866167273e-10
aF3.840122511753205e-07
aF2.4528137012714052e-11
aF4.0597941759292536e-05
aF2.3566194702043508e-08
aF2.930703670726188e-08
aF0.005172102448777834
aF0.021399369171011498
aF4.681061218673331e-06
aF0.03622130586983575
aF2.008778308403692e-05
aF9.014300617742532e-07
aF0.00027300393144471537
aF4.0590804577803175e-05
aF0.0006813779333509359
aF6.206866541374401e-06
aF6.467779143065917e-10
aF0.00048156834321066847
aF1.0633920552096308e-18
aF3.457066317003051e-10
aF6.654994215886773e-06
aF1.3036249971289095e-09
aF0.0015871108035340354
aF7.882401899876155e-05
aF0.0031716798280982624
aF1.2866832769388257e-08
aF3.665900193608294e-05
aF0.018100694087692822
aF2.666517071344709e-06
aF1.4523221829468043e-05
aF0.00016615400539475412
aF0.0010001100586224036
aF0.0010708529444813078
aF4.088874631492928e-11
aF3.3748772270821297e-05
aF0.0001974451304390838
aF0.0001018872253668893
aF9.327605231340612e-10
aF3.8347997368107845e-05
aF0.02385116462096549
aF0.02984496211626285
aF0.023116375598536406
aF6.56205939759499e-05
aF6.002934175898945e-07
aF4.811847992975625e-13
aF2.5714146812885983e-08
aF0.07271171380330854
aF0.024700766228182427
aF0.0032926316082553904
aF6.92606527682235e-06
aF2.6338490073744964e-09
aF4.4222877143615036e-05
aF2.488970743051805e-10
aF2.7013753514316724e-14
aF7.300343400230172e-13
aF4.1762522514698645e-08
aF4.080714781128499e-12
aF1.3254479451908175e-11
aF4.596619742101039e-08
aF0.0015965455667898284
aF7.997030733204656e-11
aF4.2934792006634715e-12
aF1.4824905714367039e-10
aF1.5438999329680677e-07
aF0.014357378495854509
aF0.00029442548158692834
aF0.001950056664496396
aF0.00011819802787598622
aF0.0009668678447122576
aF0.037552171035899355
aF2.1688799704225067e-11
aF1.2094512769375261e-11
aF4.5604891166754595e-15
aF5.822136111341537e-17
aF4.6845016761939304e-12
aF0.0016474596991833041
aF2.394156759145495e-05
aF2.031434826450051e-11
aF0.00027397244046362194
aF0.00018693112045923313
aF5.649573208626743e-12
aF7.41450074008157e-12
aF4.203432097687453e-11
aF0.00013599255311205405
aF1.5181572714743284e-07
aF0.0006548386903917892
aF1.685244797394122e-05
aF4.3712215083215535e-07
aF1.6377298676073977e-13
aF7.104864601714624e-08
aF0.00029234564979998634
aF0.007284722993455752
aF1.4806971711943268e-10
aF1.1520605449147728e-21
aF4.3179145413868066e-13
aF5.171580911910472e-10
aF6.073540345056104e-10
aF9.308097330589806e-10
aF5.381071429557778e-20
aF1.9184712559532172e-19
aF1.2625385835966536e-07
aF0.024363478289186967
aF2.2700604248619584e-05
aF0.00011030214064270063
aF0.00024280116757499442
aF5.122503715949631e-05
aa(lp759
F0.02505725719662168
aF6.7179874874377675e-12
aF7.974711564105494e-08
aF5.283544270410132e-09
aF2.119959372990503e-13
aF0.0004373633723198847
aF7.319908582989128e-05
aF0.00011516115751277549
aF9.16160971668784e-10
aF1.0467384272691353e-07
aF5.888919807993369e-11
aF0.035556255804087084
aF0.0019338408069697096
aF4.115052627228182e-05
aF1.5022367032620572e-06
aF0.04382450300070272
aF9.34428610658718e-09
aF4.8521940655665024e-18
aF0.001362241491076151
aF3.3855072481016538e-06
aF2.0042286177755016e-06
aF3.3009574769877714e-06
aF1.884142429667231e-05
aF1.902877124009938e-07
aF0.00024814598834282
aF3.163113618100495e-05
aF3.8928234916437774e-05
aF1.4614277016248244e-07
aF0.30690968565151955
aF7.291652760541481e-06
aF3.010454472741163e-08
aF8.120699752644693e-09
aF0.00019816904020184627
aF2.7757729788635433e-05
aF6.917644860458407e-07
aF0.0001372705674693114
aF2.0203725738751e-07
aF0.0007549994071544924
aF0.00011729654805335993
aF0.012207423593001492
aF8.219851166007445e-07
aF1.6689550111495356e-06
aF1.97937030546069e-10
aF9.39598722587979e-09
aF2.5445165067828824e-06
aF1.3446769808006777e-07
aF0.017641578313061474
aF9.399276356681648e-08
aF5.176083229978809e-05
aF9.297525236660032e-08
aF2.3347418670077358e-09
aF1.328612057185192e-05
aF3.220528072968938e-06
aF7.183335033995178e-07
aF4.3643372493266866e-08
aF0.0012858484032840696
aF0.00039642492088575864
aF1.0559162766760797e-10
aF5.884103017214118e-18
aF0.00015552869567484598
aF0.001161032438920845
aF2.6399945332515964e-06
aF3.870827253711333e-09
aF2.0312074878923036e-13
aF0.00032469791955319426
aF2.0498711948623473e-06
aF6.473012079857321e-16
aF1.2644612426036585e-07
aF0.09590098539012816
aF5.573678208231179e-10
aF0.0004247578181155668
aF4.353191851381019e-06
aF4.31502869834934e-10
aF3.432771429779302e-05
aF1.8342860746386407e-07
aF0.025638133544171257
aF2.3471175476853985e-08
aF1.198961668994765e-11
aF1.5855476162406053e-13
aF0.0004980931452594073
aF0.004656317285942388
aF1.763811797832161e-05
aF0.000531279662177798
aF2.8391616168926153e-18
aF3.681531781945362e-06
aF0.0025642219499861134
aF0.00035636671343501814
aF3.7849033028243044e-06
aF2.376685001498343e-10
aF1.1482356930390646e-06
aF0.0008106424123618647
aF6.194084245890638e-07
aF5.862380867122369e-14
aF3.075246169380439e-10
aF2.34505083221501e-05
aF1.9249480545504067e-07
aF5.519315777381347e-12
aF0.056578462853592526
aF0.001873374305587923
aF5.42498901243994e-11
aF0.0017525236460248276
aF0.026025959698392276
aF5.426203352335648e-11
aF0.00029716403382987807
aF0.003867427035780337
aF3.822847506890691e-08
aF6.203385308345885e-07
aF0.00017378993505004462
aF0.0001372425134157529
aF7.688734642986697e-05
aF1.3255249924441873e-09
aF5.6189763067948556e-08
aF3.0325531516589596e-13
aF1.2588188594464557e-07
aF0.0053137354782393405
aF0.025885011239851808
aF2.458816862737227e-06
aF2.1024054540133698e-05
aF4.496324321141118e-06
aF9.59602075316364e-11
aF1.204600089845067e-05
aF4.580801001368949e-14
aF6.156919829823081e-09
aF8.23248472690565e-05
aF0.00013823751393934517
aF4.885433165179023e-07
aF1.8836898707296034e-07
aF0.0007875675636366168
aF4.886505808262123e-14
aF0.0002059791994578266
aF0.00032166115924443556
aF0.00830432892041672
aF5.86467490474429e-05
aF2.320019589558101e-13
aF6.559631472096335e-05
aF1.7039151819733642e-10
aF8.189339615929136e-07
aF2.8076025785105316e-12
aF0.00020457324475044015
aF1.995673929306774e-11
aF1.4725431462849717e-05
aF2.2277111966015907e-08
aF0.0003648459049795749
aF0.026188035849076103
aF1.650755258357436e-13
aF1.1565911373304763e-07
aF7.776566671397798e-05
aF2.781110639155314e-11
aF0.0023166574454783766
aF0.007940009382387075
aF0.00027658869130076346
aF5.5432537059799706e-06
aF1.3156936326186719e-05
aF0.00012046774988366326
aF2.53247475988542e-11
aF3.7153035013649015e-12
aF0.0005652768569191349
aF6.573530696458623e-05
aF1.0978457676249093e-05
aF6.810464936272938e-06
aF1.3050492398369702e-08
aF1.7620229353364257e-08
aF1.8746603040290672e-10
aF0.0003265332623946193
aF1.0452697929105005e-12
aF0.002111480663732306
aF2.3709393245533636e-06
aF2.5820659111419445e-09
aF0.0008234828869495836
aF0.009759422227215618
aF4.580885559720722e-06
aF7.920571246504884e-05
aF1.3691226757055472e-10
aF1.8015168937296161e-09
aF5.127514009071572e-08
aF2.8985096339010304e-05
aF5.835675998190148e-06
aF4.545974926399155e-11
aF4.550303611142424e-08
aF0.024505458277945515
aF1.6369292520974238e-07
aF0.009779151548282815
aF3.008112876240296e-05
aF7.396032379026092e-06
aF0.004831465174491988
aF1.2160260938679263e-11
aF8.802173943921585e-05
aF4.270953277261316e-10
aF1.8920598456340455e-08
aF1.2527149766897963e-10
aF0.001271921609170077
aF2.431259111544179e-06
aF6.246652505544866e-07
aF4.001876927686421e-05
aF2.4505776577508545e-10
aF3.2896657458471653e-06
aF1.8206903279628352e-06
aF0.00033121831827150685
aF5.389401897749225e-10
aF1.2456091820064666e-11
aF6.808316011157385e-13
aF3.324027957975075e-06
aF0.00017968643473379795
aF6.5205660378803224e-06
aF0.00021545268952893125
aF1.0809524131357756e-16
aF4.966568196801162e-11
aF2.418151944108903e-10
aF0.001017838035843822
aF3.504987768441257e-07
aF3.0845558589974692e-06
aF5.651453697473017e-06
aF0.006385666211135161
aF0.00032214846451269195
aF1.0698423096161139e-11
aF0.02558893170685377
aF4.532450399672511e-17
aF4.332436855809915e-06
aF0.0024320659713607706
aF4.926847319651262e-11
aF2.9515343193051236e-08
aF2.924699242360171e-09
aF0.013514640671466308
aF4.936653061156207e-15
aF3.516258015851908e-08
aF5.598248206308704e-08
aF1.7523767304386682e-11
aF3.845254790742119e-14
aF0.02590824626473247
aF1.181904403270246e-07
aF1.1117068726565664e-06
aF1.5321342445695632e-07
aF0.009392601065753124
aF4.0128183909861237e-05
aF0.006246327927149455
aF4.0524214356946164e-06
aF1.722025607484497e-10
aF0.00018669735835140174
aF0.02143131118680866
aF0.004924828208840833
aF4.797758658374195e-06
aF9.683998667173926e-06
aF1.3289249614291865e-10
aF3.537957295033315e-11
aF1.3769000878806587e-08
aF5.311056774678136e-13
aF0.0019057597944171017
aF1.6394084104797352e-07
aF5.036612357191777e-14
aF1.1323686398966951e-05
aF1.2352172571930282e-12
aF9.286168614399383e-09
aF4.5944748681225334e-09
aF4.0387301606111893e-16
aF6.499669738105671e-10
aF1.9040436498275604e-10
aF3.753038577574241e-08
aF6.153142613451712e-06
aF7.556004729059562e-05
aF0.005943065035675495
aF3.9154692693418185e-15
aF4.747175883076162e-06
aF2.036088994212797e-09
aF0.0016845065508344405
aF4.18029555468572e-06
aF1.304853077146854e-09
aF4.4359052482921566e-05
aF0.0012798397618494046
aF1.0118339915820897e-05
aF2.469212014132046e-15
aF0.0073900464200036915
aF7.247527990868797e-05
aF0.0005768245989694282
aF7.899678748885085e-07
aF6.672480605978201e-10
aF0.02622251310174613
aF7.392237352853615e-09
aF0.00017039271130062035
aF1.1139318564973595e-11
aF1.982535190013833e-07
aF6.890906962782428e-11
aF4.6265259139523166e-06
aF1.7186308066606463e-16
aF8.56363379125058e-08
aF3.489741294724155e-11
aF9.139452864755149e-05
aF0.0004379803436005291
aF0.0004936423730740088
aF5.584593680054604e-05
aF4.080179057597709e-19
aF1.5282957602299422e-11
aF0.02580781584824855
aF3.9705946604477136e-13
aF2.1186443395983447e-14
aF0.0002461634881236565
aF2.5498497898877226e-09
aF8.020509826700626e-05
aF1.5338886848527302e-06
aF2.0693270963926876e-10
aF4.832727323964389e-15
aF0.0037284158302548645
aa(lp760
F3.688513917875601e-05
aF0.007752260168256279
aF5.7828751327184e-10
aF0.013488646016901
aF1.746774075196077e-11
aF0.013078565236608601
aF0.004116473031173797
aF3.887533916621045e-10
aF1.2176128318682671e-09
aF1.4306747064527942e-07
aF2.17297857063852e-13
aF0.008764368535926914
aF7.323262133413514e-05
aF5.495387695467565e-07
aF1.7509410184068653e-06
aF0.09324242348465304
aF3.246921922035896e-07
aF1.4138567778386744e-15
aF0.0004192616582681238
aF7.382248189956771e-07
aF6.544272912982057e-06
aF0.00751808121428843
aF1.0865368082521307e-07
aF0.012419526705111199
aF2.5153569915840305e-06
aF3.5632554250491194e-07
aF0.0001043024525776946
aF6.479007272915005e-14
aF0.012169469487011303
aF0.012377806502880557
aF0.00034139011864050807
aF8.268460777504262e-09
aF0.0077842217730581045
aF1.462163886573361e-07
aF2.042463402263554e-09
aF2.3810853211773414e-10
aF9.6840825473995e-07
aF1.9288524050379398e-06
aF3.0135568871337673e-07
aF0.0005098269683411424
aF0.0001839977692867388
aF0.0007981202123863867
aF9.651815836812955e-11
aF4.932877812434198e-05
aF4.908947742370644e-07
aF0.0024662122304011254
aF3.076596126295219e-05
aF3.661102788862164e-14
aF4.4606839268225837e-07
aF1.2919211551220428e-12
aF3.378667588807171e-10
aF2.6513823660274688e-08
aF5.186679320607327e-05
aF0.022937792126751448
aF1.4692440078312944e-06
aF0.012889485019007921
aF0.00021694499168527586
aF0.013591874703938245
aF1.1188321616595663e-13
aF0.0028401707435352958
aF0.009652989545919527
aF3.6314996952008615e-09
aF1.765686756291114e-10
aF3.429461089581954e-13
aF1.696321353700821e-08
aF3.202011864675964e-07
aF9.329113944062523e-14
aF1.2539383395906988e-10
aF0.016159843105702936
aF9.951771391899494e-05
aF6.516908267150717e-05
aF0.01482247069114447
aF2.5699894321340444e-10
aF3.623101979413246e-08
aF1.9840112937742607e-09
aF1.9710725388126037e-05
aF0.0015005771976882038
aF0.0007356094203230408
aF3.922073118574682e-11
aF0.012886688515091874
aF0.006367702933808657
aF8.51586640283382e-11
aF0.013319183482868395
aF2.1706283545000097e-10
aF1.8840442822783346e-11
aF5.849633078344871e-06
aF5.846696586854223e-06
aF0.013505489998158211
aF1.4335749242304142e-06
aF7.554344490159468e-07
aF7.536422947056173e-08
aF3.4704911973862283e-10
aF4.9896235052533244e-17
aF8.468121807279287e-10
aF0.026600891833775335
aF3.3642821413853893e-09
aF2.0969749367231775e-09
aF0.011465958276647129
aF2.4364970209839866e-05
aF2.9684230194330153e-05
aF1.4644839852679558e-05
aF7.769654890791619e-05
aF1.5569599967684386e-09
aF0.006889966652352707
aF1.1023775098255049e-05
aF5.66197952043302e-10
aF2.3540505590835682e-05
aF0.015013361236400567
aF8.914446059189415e-06
aF4.058396099739063e-05
aF1.8670681764626577e-09
aF1.1985152928230945e-09
aF7.197904664766793e-10
aF4.494333626605568e-09
aF1.3413479194010306e-07
aF2.386022433071643e-06
aF1.6402224427615587e-10
aF0.013579173137685292
aF0.01358634918291483
aF3.764814795413123e-09
aF0.007394447430387847
aF1.0701387853528331e-13
aF6.353046758620436e-05
aF9.828122870791558e-06
aF6.782317605931058e-08
aF7.890181799654925e-09
aF1.872513179652617e-13
aF0.013186383300628431
aF6.168986976600613e-08
aF0.009642260732470823
aF0.0008991869175669227
aF0.003550629423971713
aF0.0015435336289053732
aF3.25722942875219e-16
aF0.01355980111615548
aF0.013594236088987681
aF0.0029890764961568285
aF2.3139781248856878e-10
aF7.407548591896691e-09
aF2.690665428141782e-08
aF3.677634287825266e-05
aF0.013274293199667882
aF0.004306771116525094
aF4.811872306568843e-07
aF0.01009992232376118
aF2.4275954600078546e-13
aF0.04071086117063983
aF9.193794760815178e-10
aF1.6701009647601572e-09
aF0.03661367421351917
aF0.002879801334974622
aF5.267667244424687e-07
aF6.757076257063241e-08
aF0.0002881529073435466
aF9.329970326020341e-09
aF9.852811754077192e-11
aF0.026782418594467595
aF4.2118927350906785e-05
aF8.67623137215179e-08
aF9.28956588366888e-08
aF7.520968480388278e-13
aF1.1193913580959455e-07
aF2.843434781766352e-13
aF0.013425003657308658
aF4.749719750786196e-08
aF0.0009282541807841256
aF2.433201431538703e-07
aF7.589804485544688e-06
aF0.012448055196699174
aF1.1114441780008387e-07
aF6.860751159599149e-06
aF4.501183420549008e-07
aF5.430789629755285e-13
aF7.78606843319276e-11
aF4.8628895082542884e-14
aF0.0007437646224237487
aF8.178065338820704e-10
aF0.009377503456349415
aF0.00010429575679331174
aF1.2406128573014234e-09
aF0.00038689852482346555
aF7.322016596650216e-10
aF1.2350231038714856e-07
aF0.01357756033864178
aF0.011090678376203377
aF5.406444533473862e-05
aF1.2435882500693044e-10
aF2.4317875612471574e-09
aF1.3645626650059492e-11
aF1.9632548792450908e-13
aF8.058567864240759e-08
aF3.818579064218564e-11
aF8.017230651178347e-12
aF2.8741579741351775e-08
aF6.810162548870886e-12
aF0.013590354208114018
aF2.975609834011726e-11
aF0.008754813022000735
aF3.178290800216211e-14
aF5.180691399989192e-18
aF5.1886643213409714e-15
aF1.2480075843354999e-08
aF1.146325533929254e-09
aF2.130937210493453e-09
aF1.4300105889020261e-09
aF1.1902821814971435e-15
aF1.776469947828164e-16
aF4.937485262383102e-12
aF0.0008440299178804076
aF2.6472929803840205e-08
aF3.096274924473733e-08
aF4.420550315865038e-08
aF0.0006740454597464173
aF0.013426486347525248
aF2.473620976910001e-07
aF2.842679181389966e-05
aF9.261208357080886e-12
aF6.569023336079039e-09
aF0.01097260228596426
aF5.08778110072864e-09
aF0.00047471565901673665
aF0.0008375759203434822
aF1.464953721078955e-08
aF9.51117474515586e-11
aF6.346329670092616e-05
aF2.468495780282782e-10
aF1.186621250716669e-14
aF9.084470672721668e-16
aF0.000141228089404851
aF0.006863064915824418
aF2.9811295529199313e-09
aF2.0118076839287364e-09
aF5.6172195822715164e-05
aF0.019952477450185174
aF5.071118781788494e-07
aF1.3949498328667186e-09
aF3.191218894606596e-14
aF9.410217530218655e-08
aF0.00014439892749203086
aF0.011042469334142555
aF0.013591494009990207
aF2.528270765916461e-09
aF9.142548790982547e-12
aF5.149903566347081e-11
aF0.0001390473371727928
aF8.818102104208223e-16
aF0.004166311148885472
aF0.013497505160660105
aF1.254827747922631e-15
aF0.013577411441625326
aF7.410601127407599e-09
aF0.013537955552625727
aF0.02511001176717007
aF6.108880563879401e-17
aF2.5691999484095812e-06
aF9.976670323388763e-09
aF5.667354665658183e-07
aF8.833925985268701e-07
aF0.010294156379659115
aF3.1914832449681405e-08
aF2.728484215691751e-16
aF9.730323582122153e-07
aF1.0617123045292864e-05
aF1.9570745056307602e-09
aF0.00010742162580412064
aF6.873160057303593e-11
aF0.02716566607312372
aF3.3911552707690226e-08
aF0.013589230530312217
aF4.0057318724970055e-10
aF2.4900909311690753e-09
aF0.008364649688065277
aF0.013294865185786259
aF1.6359177940291776e-07
aF8.042760889829942e-12
aF1.9964686327689222e-12
aF0.013594468272394125
aF2.3605718316678124e-05
aF8.762924981312589e-16
aF1.820323096273009e-05
aF2.361811712795684e-09
aF1.0962976802868668e-08
aF3.377522813748079e-11
aF3.8096231948245557e-10
aF0.004128176362219883
aF7.028877309960869e-09
aF0.0003574079687355667
aF2.0308637971556553e-12
aF0.013565537899497555
aF2.0574405480742518e-11
aF9.490153019465787e-10
aF5.985447599557865e-09
aF0.013286619127711704
aF3.097233864303279e-14
aF0.013438653925039594
aF3.6240554532135853e-09
aF1.403515001553709e-06
aF0.006820617180979368
aF3.790519532966476e-14
aF5.703649189560689e-15
aF3.537693223264865e-05
aa(lp761
F2.0597409895195275e-06
aF0.007209250412455322
aF7.928945369618862e-06
aF5.533716941042631e-07
aF9.659003604769103e-05
aF2.5726435438605445e-05
aF0.006085694560925285
aF3.815906496960738e-07
aF6.609357254748623e-10
aF1.8923857076831397e-10
aF4.559482787394014e-10
aF5.405690402976246e-07
aF0.03095569825316828
aF2.4247043334908057e-05
aF2.691253330389383e-09
aF4.411596121192798e-05
aF4.7677216712994203e-07
aF9.479775476790219e-19
aF1.067468005150223e-06
aF3.533933969958435e-05
aF7.724320132104102e-09
aF0.0014423601423532468
aF5.382733006435897e-06
aF2.6488801977479215e-07
aF1.804589872697836e-08
aF9.464104855527359e-09
aF5.255672711674829e-05
aF1.0824565857935094e-13
aF8.967967889652565e-06
aF2.402067658035705e-05
aF6.425642931452507e-07
aF5.815700741335651e-09
aF3.0174637292332095e-05
aF1.6434580914481424e-05
aF0.01927136889799839
aF1.4257719862249397e-14
aF1.8248060325165216e-07
aF0.03817714824275615
aF1.200684925014482e-06
aF3.2267066659738656e-09
aF0.00785552679698054
aF0.0009287545755382684
aF1.0070176631125413e-11
aF7.845184872548024e-09
aF9.676057977965773e-05
aF1.2864990099259425e-06
aF0.00010575241772393472
aF1.258756615807142e-13
aF8.262243105839937e-10
aF3.708069252119167e-14
aF3.2875571505672384e-12
aF1.4603636973215804e-10
aF1.2880121113514003e-06
aF0.004618275621426358
aF0.02032761426195262
aF1.9186059934427193e-06
aF0.21687402927466867
aF4.286957758924159e-07
aF3.9688782500937314e-05
aF0.0010032294278215733
aF0.003987725465295046
aF2.539906873784576e-08
aF6.21287519856323e-13
aF1.3283159248727493e-13
aF4.761760839551264e-12
aF1.3093897558266386e-06
aF1.132633285252781e-08
aF6.38304188897995e-10
aF6.024763062053393e-05
aF0.016433478391698904
aF0.003149802947669252
aF0.003617447256332422
aF0.003268789659892877
aF9.71381766963602e-10
aF3.3652685003685924e-05
aF3.432559330010721e-13
aF0.13065423909474125
aF0.015852732063813248
aF1.6061177194257787e-07
aF6.436552790363637e-06
aF0.011838590733285827
aF8.862473089244053e-05
aF1.8127158055418102e-12
aF0.016775630037564833
aF2.4178087479151564e-08
aF4.429576954868678e-08
aF6.858276478060493e-10
aF1.5821209283910986e-10
aF0.016687204988287057
aF9.825449790045445e-09
aF1.047725893101689e-11
aF9.450762511828993e-13
aF2.925439518694762e-19
aF9.285073814999629e-12
aF2.8303166854499476e-05
aF1.1231101157812693e-10
aF1.8697485923803012e-06
aF3.4097880634965246e-08
aF2.9734729378583627e-08
aF8.462859309053945e-05
aF0.0032886989904082693
aF1.3516326903753338e-11
aF0.014338983552619313
aF5.487213838554059e-09
aF0.0007354807286182299
aF5.3317005990400246e-11
aF2.2011516584204518e-10
aF0.004554453153324687
aF0.013543738035232114
aF2.1606948878789476e-05
aF4.0054988193606715e-12
aF1.6359680285141607e-13
aF0.0018638665801767446
aF9.119843844287721e-11
aF9.630615377282076e-07
aF5.191550182258001e-07
aF0.0003463500736830543
aF9.453891148807845e-10
aF2.83721783534304e-07
aF0.0035753427213366224
aF0.000839354265474983
aF8.185480209853962e-12
aF1.7251305921532845e-08
aF1.3097113641304506e-07
aF1.6491336051586454e-12
aF1.5626336125853985e-06
aF1.307465325265837e-10
aF3.0967388938575955e-11
aF0.016605079171374736
aF0.0006366937852953979
aF0.012968738337346306
aF1.7962162460351868e-05
aF1.7198654218354823e-08
aF1.5634491564026482e-07
aF6.807606186390445e-10
aF6.316292879478746e-08
aF1.7569348339328194e-07
aF2.8414553033543994e-06
aF1.5328381613520849e-07
aF6.262531814387153e-06
aF5.3950220025684534e-08
aF8.384018403928835e-05
aF2.411985306116866e-05
aF5.278594513552295e-08
aF0.004312211254278744
aF3.564500095404029e-09
aF3.548650828049047e-07
aF0.010763484720585973
aF5.68047936584411e-05
aF8.478707602518031e-07
aF5.162904772424656e-05
aF0.004596726609515611
aF5.830672122430786e-10
aF2.0897556831062294e-08
aF3.535803683180857e-11
aF1.1667811282295692e-12
aF0.00012827562365103385
aF0.0006863931912668438
aF1.856084017520885e-07
aF3.121974488538101e-10
aF1.8103012578042475e-15
aF1.4457598190002689e-09
aF0.00033873143329713476
aF5.2848923419210166e-09
aF0.015361958114779152
aF0.0009152354269048062
aF7.173533141480824e-07
aF0.004535886482345484
aF0.00031428793405880373
aF0.0004473109398694707
aF0.013995072278612316
aF3.574774659741407e-11
aF1.3832127629873963e-15
aF1.444632169088812e-06
aF0.0004616131385796751
aF0.015419390166214525
aF1.7240941375761826e-09
aF0.0051974952012365785
aF0.002829792990849503
aF1.6986249092903705e-09
aF0.0014997415679935061
aF3.71667705808045e-06
aF0.01160705119504578
aF5.293922875283343e-06
aF9.281913269709493e-09
aF0.01670237302613043
aF1.1007491213548507e-14
aF1.4823612807979106e-09
aF9.145553315907356e-09
aF2.4652615305570062e-12
aF1.4473523767788044e-06
aF1.0786686090763462e-10
aF1.835213501208344e-15
aF1.0125507012362931e-10
aF4.767327955725948e-12
aF1.0315692050029743e-06
aF3.917640237417095e-06
aF4.283236226781601e-07
aF1.8605645971538585e-06
aF1.4955992268103563e-14
aF2.1441478807068156e-10
aF2.812258429557721e-12
aF4.52437398406895e-07
aF6.286034564714496e-13
aF3.414844918071507e-07
aF5.654275403281119e-10
aF4.8781048581575e-23
aF5.804071110427592e-14
aF2.174841617384885e-09
aF1.0895143085053948e-06
aF3.871449075067968e-11
aF2.356337160669774e-08
aF0.014415994252617144
aF8.077572913452585e-09
aF0.016724177626348966
aF1.2122355992500548e-11
aF0.004944867631300714
aF3.37719681120002e-11
aF1.49186034516028e-05
aF0.014962271140537668
aF2.1266187611285166e-08
aF0.01548274529842654
aF5.5553597702013285e-09
aF0.00027115557552374306
aF0.000154512903171912
aF4.3270555575213153e-14
aF3.312190363041118e-12
aF3.997601327840326e-16
aF3.3089056791638376e-05
aF0.008221049688019644
aF1.3729270563518034e-10
aF2.3450025911358228e-12
aF7.3567307395211895e-09
aF1.138144529490782e-05
aF2.9733393642375784e-05
aF1.1132722117953466e-08
aF5.093619424320509e-13
aF9.364062883442584e-11
aF1.8456613737136243e-08
aF7.230863334091127e-11
aF7.793198095149435e-08
aF8.49845294111358e-05
aF7.762158276236996e-12
aF7.895925330442183e-05
aF3.055240578774921e-10
aF2.2156676621496985e-09
aF0.005000052769436733
aF7.771717318605187e-08
aF0.0031567824675449194
aF8.212659065718126e-08
aF0.0062560712033071595
aF5.936814242281583e-07
aF7.009189409474387e-05
aF9.707362530476649e-07
aF0.0012364422315000257
aF0.016760788153951257
aF0.0030731119376065327
aF0.016193168565036588
aF4.806339265283506e-07
aF2.8825302327717354e-09
aF6.571165856283229e-15
aF1.3152415328067119e-06
aF0.016697674875395977
aF1.4570080422119416e-09
aF8.158587744153172e-06
aF0.016710858216694834
aF1.526487452694131e-10
aF8.150686186943092e-06
aF2.446667804231034e-09
aF0.01486658863227558
aF0.00026097709704205985
aF1.5635322552720453e-05
aF1.0754438979945249e-11
aF1.014261602496398e-11
aF1.7878771082407855e-09
aF8.288437539470616e-08
aF3.987927986558105e-09
aF2.8432518210853373e-08
aF3.1088904798463304e-14
aF4.380701514122404e-11
aF2.0042476046612382e-07
aF2.8969342453097103e-10
aF2.10024644019969e-09
aF2.5390810697171215e-09
aF0.011666730126730111
aF7.938354097761881e-13
aF6.581439396244404e-05
aF0.0038257504507408628
aF6.142132887804559e-12
aF0.016212313885947075
aF0.014574132041691168
aF2.5427401494708873e-07
aF0.0003799031667612753
aF0.00015500961686610025
aF1.4831071373346352e-06
aF0.015597337455824863
aF6.511687769723392e-06
aF3.1778855046309925e-08
aF3.1556270218759824e-06
aF0.00011484768367908641
aF4.119531324005383e-08
aa(lp762
F2.374211300264875e-06
aF3.0859575442389844e-12
aF7.767198692186935e-08
aF3.5126375697526e-20
aF1.3734347358997833e-09
aF1.8154617498456398e-13
aF0.025768941305972817
aF1.0256797811405113e-05
aF0.0015867583156165999
aF7.496294647978025e-12
aF9.928061710996477e-05
aF5.6876997756566705e-11
aF1.547524418434617e-05
aF0.052831149335448635
aF4.819441274911977e-07
aF0.04898509760883874
aF1.0979594516284007e-10
aF0.03471877661451186
aF7.182247940161929e-09
aF0.04814798033157455
aF7.509957889399916e-06
aF0.012474039522102078
aF1.019498767564317e-05
aF2.3847081523861155e-13
aF3.5739103862266587e-19
aF5.338890522193865e-07
aF0.0005038385280395887
aF0.01605132588820355
aF3.0251470375588352e-05
aF0.017406361735611012
aF0.029981772367621957
aF0.0026541822674348847
aF2.2862919420629635e-07
aF1.3241456603184156e-05
aF0.00638587590152676
aF2.7546993535465684e-10
aF3.215708177962957e-05
aF0.022993961295968098
aF2.8597828772195172e-06
aF2.254984746872379e-06
aF0.0018654918457099018
aF9.741584389367725e-06
aF0.020004734007033398
aF5.732358396028538e-13
aF0.04398233436654012
aF4.6217191346908056e-11
aF0.005507311494347872
aF4.0978947808417055e-09
aF2.3716793581392092e-05
aF3.4734138662372155e-10
aF0.003900391352709621
aF0.04855903325948444
aF0.0006066373968562471
aF2.9369002018147105e-10
aF2.5782656808970234e-08
aF1.9670282167718974e-07
aF0.007587104715605397
aF3.062301749975473e-11
aF1.3113754899478535e-11
aF1.0296093079656748e-10
aF1.0194889454311977e-08
aF0.0029782495815687225
aF3.420610401890552e-08
aF6.769909743630535e-05
aF5.197542652139331e-07
aF1.3039252141743604e-13
aF0.017450710720268197
aF1.5327004187455637e-08
aF4.001879682578601e-07
aF2.9244235187495418e-05
aF4.7686271614034585e-05
aF2.0200329972251828e-09
aF3.141821362802355e-05
aF1.5945962440066491e-07
aF0.0008178678331703801
aF1.2102008920062644e-09
aF2.0374366959775367e-05
aF3.062674474288822e-07
aF0.0001889899479807242
aF4.1297330867692883e-10
aF8.007482714388465e-06
aF0.0009291675425569664
aF4.2993398608355946e-16
aF1.4199856470134067e-09
aF0.008894645963273664
aF5.758947283628463e-09
aF1.619170809596272e-08
aF1.0974266969228542e-05
aF2.6348943551676498e-06
aF1.2185930097710443e-05
aF1.4783585633154262e-06
aF5.194225279812585e-10
aF0.01695924095921906
aF2.432249113464119e-09
aF0.04480768241980509
aF2.60683606975236e-12
aF0.01546131092773652
aF6.015479906054406e-10
aF2.6665854446142045e-10
aF0.007637523308949874
aF0.0001837713710826015
aF4.941774248305779e-11
aF5.119394806233213e-08
aF0.0002637800012442249
aF0.024752052748754756
aF0.017185824955559325
aF2.3317435271838775e-09
aF1.6939093942847644e-08
aF4.1105053808838983e-05
aF4.216292195689745e-09
aF0.00019409302965990097
aF9.452644732339668e-09
aF2.71988536343385e-05
aF0.01718478380923993
aF0.0005191153157448716
aF0.00021553439767292882
aF1.0936059679140315e-06
aF4.103550671497953e-14
aF1.0085310145528349e-08
aF0.01280548990939749
aF5.059884253743468e-07
aF0.015117371246668093
aF1.1077514306260055e-09
aF4.907194732246869e-09
aF0.001584111041607046
aF0.009078856720918455
aF0.00018683462359826526
aF1.8054228671414456e-14
aF7.733581750972441e-13
aF5.788102160513643e-07
aF5.92202672290845e-10
aF7.304612245669021e-06
aF1.2040308355166254e-10
aF5.335723672064947e-06
aF5.023305405127308e-20
aF3.9669894149970586e-11
aF1.871023418868349e-07
aF0.0022375978663354227
aF3.085697025532816e-08
aF0.011853557832574467
aF4.325694885463316e-08
aF1.6065397944711003e-17
aF0.002662009580088053
aF5.736788729845911e-08
aF2.2145094243728901e-10
aF0.001222711580282281
aF4.226108212222555e-11
aF1.9442648660535146e-07
aF1.5136660142898487e-06
aF4.1935028486391505e-08
aF4.411913357800229e-06
aF0.00010571844362871272
aF0.006876655088881693
aF3.196801247652465e-06
aF8.783253413991805e-11
aF0.015353500498432123
aF9.030928546512896e-09
aF2.1347863614617222e-07
aF0.0008630380418179607
aF0.005160919724339878
aF0.0002762651775114759
aF5.332567024418563e-09
aF4.218810314854055e-07
aF2.0487316544417257e-15
aF7.402067263646981e-08
aF1.1686902611446061e-05
aF0.021330627904666048
aF5.20160183517188e-10
aF2.878574740659687e-06
aF7.803593938210014e-05
aF1.0790675687489132e-07
aF4.942895467277689e-09
aF3.6541815827735596e-09
aF0.0009108172268246738
aF6.8272434738713685e-12
aF3.020512051471459e-08
aF8.965279874662016e-07
aF4.358043473842597e-06
aF4.9758688983868635e-05
aF3.326845564491626e-08
aF0.0024798663758078946
aF4.1533541830015853e-07
aF1.3114730910368606e-07
aF1.319318234730429e-07
aF6.750767779515894e-13
aF6.241447478760984e-08
aF0.00013860293107536417
aF4.967171213439108e-06
aF5.630079495042808e-06
aF0.017324525395261588
aF1.870330592502147e-07
aF3.344003683770362e-11
aF4.187465593746058e-09
aF0.008773964224998775
aF0.006941600029307428
aF3.512220505804578e-09
aF3.650159966416739e-05
aF5.293888684856802e-16
aF2.4960904023134515e-08
aF6.481790875385191e-14
aF7.837871740685964e-11
aF0.008763332298710744
aF6.732205733653326e-08
aF5.299455333178165e-08
aF1.425344996406839e-09
aF7.980184908586414e-08
aF3.79165327437615e-09
aF6.385924620874624e-09
aF8.407276824578563e-09
aF0.012526561573691223
aF3.3124771809826595e-11
aF2.32678455347752e-08
aF0.0012836620905519805
aF3.480225781250186e-12
aF1.1641743077094576e-09
aF2.282719439049728e-13
aF2.315763995066915e-09
aF0.004893195721554982
aF1.5558049668810263e-06
aF0.0004233839090689715
aF0.01687726183637238
aF2.4851860310414226e-05
aF7.359193765357708e-11
aF8.260082651276738e-10
aF1.3003070484294201e-08
aF8.81287659716985e-06
aF1.022989886186878e-08
aF0.033907948356206696
aF2.620308017331185e-09
aF1.8429402628593936e-10
aF9.788073204438308e-08
aF5.522258308908511e-08
aF2.004579945519416e-14
aF0.00010135793247704965
aF0.0008273961330018936
aF0.002406337262906659
aF1.820392823745691e-05
aF0.016398205915033076
aF0.00014908235366452305
aF7.262618151487292e-12
aF7.3302027474662e-08
aF3.4491173062754874e-05
aF0.002109733824295932
aF0.013354643645532287
aF1.0541368188407806e-08
aF4.3812205395942476e-05
aF0.00014293688546685503
aF6.07445295447398e-13
aF1.515677461854016e-10
aF2.7775711867489997e-12
aF4.6057875864348065e-08
aF1.6510578115667506e-12
aF9.171489218543847e-16
aF6.251754127744901e-06
aF0.012397907657902009
aF1.4752929402978444e-09
aF4.860026097582837e-11
aF9.390969016390185e-09
aF4.861946587537418e-05
aF1.7689973736180662e-05
aF0.015991268568838212
aF0.014430061141349215
aF9.25185740594521e-06
aF1.2459966227610801e-06
aF1.8551054435729305e-06
aF2.648820451466687e-07
aF3.057467876983464e-09
aF3.3749645838459765e-07
aF4.185964647774465e-16
aF2.2388450788437285e-11
aF0.0047934998641844945
aF1.7219955624958392e-09
aF1.3568032751227807e-12
aF4.241376023992937e-11
aF0.0023913727973092222
aF1.2209978036107242e-07
aF7.08589211969587e-11
aF6.12645855535116e-06
aF0.017181548648660283
aF3.378031349472681e-10
aF0.009796611005494912
aF2.7745104541738366e-09
aF0.016922593948995316
aF3.425972369068859e-09
aF6.309658344348438e-08
aF6.949650996542107e-10
aF0.007600852113408617
aF2.1677709792465615e-07
aF4.514037670569798e-16
aF3.075217959198213e-11
aF9.60108036028438e-08
aF2.7238759043370845e-06
aF2.2548432023697378e-13
aF1.716683151509143e-13
aF5.843673407278529e-19
aF1.6151463010087292e-07
aF7.075398434926149e-05
aF4.311306095228512e-07
aF0.004798098419737739
aF0.0060257276492403184
aF1.128059278527557e-05
aa(lp763
F5.3875655393264564e-11
aF1.7855288111055716e-07
aF2.746778012930508e-18
aF9.603936011987218e-05
aF2.0093840651398551e-19
aF0.00024464504704161744
aF0.0041971224968042125
aF0.00019732450513992926
aF6.707831443830407e-07
aF0.012385566395444749
aF2.7328108745091374e-15
aF3.219080400639653e-08
aF1.0173481015839168e-10
aF9.754863634722278e-06
aF0.012337851405986266
aF0.00021368368685054933
aF0.012388265159924434
aF1.9209181514845948e-13
aF0.036128389530712166
aF0.010577388176692754
aF0.005947910716871277
aF7.71301754812173e-05
aF2.863354841222188e-08
aF0.0010705308079744622
aF0.012270195738550487
aF0.0013610547591309918
aF0.11757379227969067
aF4.797652804546899e-07
aF0.015946008805173165
aF0.029335611970547168
aF0.012798069247528085
aF1.1921065719886962e-09
aF0.016313709305714696
aF1.0327100936965518e-05
aF6.145900464998214e-07
aF0.008280184051379402
aF0.0005148872766671875
aF7.252889201921222e-10
aF0.0005757541606233672
aF0.0061392053288143855
aF9.715964726133105e-06
aF0.0003629285586748471
aF2.461486074897747e-09
aF0.012343974246325159
aF3.1550385073288226e-10
aF0.010088623493453268
aF0.0005517686552200892
aF5.972485152240787e-06
aF0.00018561988561396854
aF0.0070154848415101756
aF0.00015398928546486585
aF7.96506006414141e-06
aF0.013700935155968789
aF0.00046332631904219735
aF4.955175643073087e-15
aF3.1751319395226163e-05
aF0.0004256130476107857
aF2.053541676745906e-06
aF8.545041109231387e-17
aF1.6039940847405978e-11
aF8.795606219147099e-05
aF5.828780633651445e-05
aF0.009179124412142737
aF1.0189006247319358e-06
aF0.0029961010580593648
aF0.012387453042698029
aF2.4549183599628683e-15
aF6.523284950392114e-09
aF0.0018866418594739231
aF7.772214902409489e-11
aF4.931455856870157e-05
aF0.007802668544670606
aF1.3674283922891383e-11
aF7.076494942628411e-06
aF9.66062198456976e-06
aF0.00025656573553395497
aF1.8746343265864387e-07
aF1.0016009214154843e-08
aF3.887470333462109e-16
aF0.00040468946373361733
aF0.0030003308845802158
aF1.7433353659435285e-12
aF2.4079927261118786e-12
aF1.465368922193583e-11
aF4.1916446515586535e-11
aF0.010725179976764991
aF0.0003884022145234037
aF2.8462594737795346e-11
aF0.012422465689332958
aF3.1736501828664056e-15
aF0.006833440229237965
aF0.012110690435292877
aF7.099423630494593e-09
aF0.012368374874297391
aF0.0005143540506649824
aF0.012389058517276738
aF8.79725020783083e-06
aF7.032431582255234e-10
aF0.01147530173506474
aF1.3197901945500186e-07
aF0.00013680513725453756
aF2.5393558003890973e-05
aF1.7009233780473012e-12
aF6.980515844401598e-08
aF0.0001104947406949415
aF2.2726094481334054e-07
aF0.012366185340960604
aF0.02001708240961482
aF2.4402765879261372e-05
aF0.012286601469093203
aF1.3527948982416944e-09
aF0.00013407791698725685
aF7.177054700674672e-09
aF1.5339311150254463e-13
aF0.005974392612973379
aF4.3525063021819246e-09
aF1.2953362683485076e-15
aF4.017004854386255e-06
aF4.818937367197481e-06
aF1.247452878777495e-10
aF0.009178557370466248
aF2.953783104438181e-10
aF0.01233137716204614
aF0.01216235109336576
aF0.003015307399155842
aF1.4290671403467647e-06
aF6.316135556269103e-10
aF1.2363014149391122e-11
aF6.693828265641195e-14
aF8.753142402201774e-13
aF0.0018402425303070177
aF0.004137311734760373
aF0.02334349692641396
aF1.206920133948745e-16
aF6.233376632780185e-07
aF1.710649156033266e-07
aF0.02203589510133467
aF1.451950842070071e-09
aF0.00010301193153091276
aF5.808215992331599e-09
aF1.0163596177936797e-16
aF0.0002298776016768252
aF0.015434152085874094
aF7.497968047979351e-09
aF5.5818947871267323e-11
aF1.4595588701208202e-13
aF2.9143899409036995e-05
aF3.71113477286581e-10
aF2.8333873223031236e-11
aF3.273657120041465e-05
aF5.888406869141329e-06
aF0.0148234825805744
aF0.0003752121282877435
aF0.03681150013256247
aF0.012389294459530919
aF2.7602252547605868e-09
aF5.869363553028365e-06
aF0.0005734883749621603
aF0.028571761624913244
aF0.000796379161202218
aF1.5194564469323683e-06
aF0.012380504649796797
aF1.5908048418434393e-17
aF2.447460768604809e-07
aF6.986351467220987e-11
aF0.0019054237147489623
aF3.669151747016223e-12
aF5.6226336225020397e-14
aF8.292946385177202e-05
aF1.4969918648100703e-08
aF7.974837011879876e-05
aF0.001246735056962394
aF6.722070335040754e-10
aF9.981832818547552e-11
aF1.0951071597692332e-13
aF9.765928797307371e-05
aF2.5581088043444183e-05
aF3.3812287312554966e-07
aF2.480892801522337e-08
aF3.2797519311270284e-08
aF3.8503080266466465e-06
aF5.414856006820595e-07
aF1.6656462258718244e-10
aF7.860939941514168e-06
aF6.06505434666703e-11
aF1.857675301626441e-11
aF0.0008172521487810685
aF0.00023163869864085122
aF0.01218882018404584
aF1.9883940443047776e-09
aF1.5768696321395887e-05
aF3.1215757608296883e-06
aF0.012059722115691925
aF0.000921678483905219
aF1.8417786781164128e-05
aF6.3483657501051876e-09
aF1.1160453284268209e-10
aF0.004254022476418543
aF3.1964754246144764e-13
aF3.425553234770588e-11
aF1.2489184711358791e-12
aF0.00028769914443644266
aF2.632295079193152e-06
aF7.672609730855864e-05
aF8.105476610342516e-06
aF2.056785906168551e-12
aF4.556366799612607e-08
aF0.012299982564464332
aF0.03586207686243523
aF1.2526273717521792e-07
aF0.012386172970267988
aF7.859827510138851e-07
aF3.075364911483181e-06
aF7.962212928449456e-14
aF1.1413879352250713e-11
aF0.000277333355207442
aF3.643600508194941e-18
aF0.0005272372137875047
aF0.0011994794371532477
aF5.239346467064008e-06
aF3.615772163135075e-08
aF1.8736890701613377e-08
aF8.476275097218506e-05
aF7.852517381363984e-15
aF0.01217217189140309
aF3.8106315389349095e-06
aF0.012053799583264817
aF8.609077406230142e-08
aF2.2709975990645848e-11
aF2.780290889624352e-10
aF0.0009591408959703343
aF0.00024185591410668867
aF0.007902863074256125
aF0.000899444595009248
aF5.850182015092254e-06
aF0.000769708505002719
aF0.004824530400417226
aF2.6481755994271402e-05
aF2.9017301598769132e-06
aF6.436454735968185e-11
aF5.953217582536759e-09
aF0.0008387078549896591
aF0.002615359820987579
aF4.905500750577731e-07
aF0.012260676780000136
aF2.2780399878672414e-13
aF0.0037505758543724633
aF8.823901790424812e-05
aF2.8405843509135145e-18
aF1.0143494803481924e-05
aF1.682172319726016e-10
aF5.106812132467124e-05
aF0.0018429294930138453
aF3.528007159887118e-16
aF1.4296051899111607e-11
aF1.113684435208745e-16
aF1.713147640700605e-07
aF2.580086516386363e-08
aF1.7420339532836192e-08
aF0.003309194132875979
aF3.4840956883779485e-09
aF8.310610473018665e-07
aF8.408746236365813e-11
aF0.009390429204139874
aF1.2230438144097897e-05
aF4.290940781414239e-15
aF1.560685169339068e-08
aF3.0926541543217077e-13
aF7.12245418388754e-12
aF7.432558979120698e-13
aF8.997098470677534e-10
aF0.004712421981550026
aF6.543711134771875e-07
aF0.012293705522774243
aF7.1707777607957075e-09
aF2.1106123248787178e-10
aF2.4191767103599468e-15
aF1.0518044225024834e-12
aF7.122254824400581e-10
aF0.012372930306065897
aF3.8268563818916987e-10
aF0.012381981623111835
aF8.04711783294865e-13
aF1.3759902222883212e-09
aF1.631613405395793e-11
aF0.012188112966969634
aF0.0004688898298050316
aF2.226960956689605e-12
aF4.099610573360675e-11
aF2.1059329614670587e-13
aF2.0572476242706408e-10
aF1.091414579318854e-08
aF2.572561837823614e-09
aF3.699732632987506e-21
aF2.4667103560861075e-05
aF3.030889053088513e-08
aF0.00401444102459885
aF0.018553448336542485
aF9.697367568996702e-11
aF1.3123654165454737e-08
aF0.010571328027747342
aa(lp764
F0.0006050647351735765
aF5.653927613164145e-17
aF0.014478466445505052
aF2.816389995003198e-21
aF0.014402042453742853
aF8.416785933906364e-12
aF0.000656046603661578
aF4.2165485962302433e-13
aF8.890987677290148e-06
aF2.5489011944805884e-16
aF0.02884903668460506
aF1.7816863019734962e-10
aF0.0010641241327994345
aF0.00152583857838919
aF3.427271545692201e-11
aF0.07972977346835049
aF3.728501481075899e-21
aF0.00034767300787926457
aF1.932424226328646e-12
aF0.0003153608036219197
aF6.238113122866488e-08
aF1.653574127539156e-07
aF0.02566788634751683
aF3.012406875693309e-19
aF1.408446183050426e-22
aF2.8910128977331218e-08
aF7.944595973341207e-07
aF0.0009362397240143972
aF0.00024313586216161373
aF0.0006731960811870713
aF8.520802356800395e-05
aF0.012291943484061884
aF8.03461729444406e-09
aF5.226255235162013e-13
aF0.004852038323828053
aF4.3550547935911346e-11
aF8.611833607120982e-09
aF0.038922044686108284
aF7.879929629934264e-09
aF4.3410140950354445e-06
aF0.005450233700464856
aF1.1438289273147139e-13
aF0.025253363463138126
aF2.588501627147315e-20
aF0.05020729323155252
aF3.1626353659538296e-13
aF0.007635438870199476
aF1.5698983402648822e-09
aF5.950407834017789e-08
aF1.4355181020938045e-16
aF8.656773955055029e-05
aF3.2715257032779136e-05
aF3.955369904867261e-05
aF3.20977219325935e-11
aF0.011413521355629916
aF5.755240920324978e-07
aF0.021615803576515796
aF3.1032686946543015e-17
aF0.014451172330603222
aF0.010507008606497429
aF1.2452365363802176e-05
aF8.972733880301015e-06
aF4.4243101298984897e-14
aF1.3098927224021661e-12
aF1.902674348355733e-10
aF4.965488984273894e-20
aF7.414254360007806e-09
aF7.830670757863612e-08
aF2.5212443902704845e-09
aF6.906220492160499e-06
aF0.00010931425507195491
aF9.133401180815007e-10
aF8.362691703176345e-08
aF1.617068840814164e-13
aF5.826273525689463e-09
aF2.7200609256655117e-08
aF0.0008777897643944605
aF1.2238436353953788e-05
aF0.014314209221212572
aF4.505016920569614e-07
aF0.012433386826338247
aF0.05701772266393522
aF1.2818608616724464e-13
aF1.364273612691134e-11
aF0.00900993257477852
aF1.6728074022368422e-17
aF2.4716223582108444e-08
aF7.976912839459024e-05
aF6.748275838722085e-09
aF0.014410660102192814
aF1.1343604414159218e-08
aF5.293806450702263e-19
aF5.794330754805636e-05
aF4.127304135308262e-16
aF0.0004749527822914211
aF2.7602049474016757e-18
aF0.0005288315406350043
aF3.1916518933001694e-07
aF8.950059002108136e-13
aF1.0886576720952863e-07
aF0.03302405489092533
aF4.159284978737065e-10
aF8.616253200646273e-08
aF8.898378805181453e-05
aF0.0007107660807842236
aF0.0031647221961053134
aF4.760983300416733e-19
aF1.9460273790253566e-11
aF3.157454983791686e-05
aF1.155174069760499e-10
aF7.862737548014848e-05
aF4.208699954627871e-12
aF6.407761136770913e-11
aF0.00034757035591853364
aF1.6984549381257933e-05
aF1.2185570331500745e-05
aF0.014183929087060546
aF3.1110398390849996e-12
aF1.3345189232000154e-10
aF0.01498978610974025
aF3.4646429370886133e-16
aF0.0018415583073680985
aF4.102324306105386e-18
aF2.4658973596685073e-16
aF2.8812263186486928e-05
aF0.000267239367022956
aF0.014331381386454721
aF4.876021231438666e-13
aF0.00014762572320905584
aF0.018025634571338517
aF1.6920771558210737e-07
aF7.220262916957816e-07
aF5.2260489789767865e-18
aF0.028966363525149457
aF1.1266004392441005e-17
aF2.4562223034093627e-18
aF8.016972152039417e-10
aF0.008230844719827749
aF1.1051566460470558e-13
aF3.791412443220068e-06
aF0.014437811867440664
aF1.4459113039293925e-17
aF1.6682520071377404e-07
aF4.904314281654152e-06
aF5.155258332666726e-19
aF0.013479527149062259
aF1.0842427439127537e-10
aF0.005191456318480752
aF0.002131806085262122
aF4.42691817683679e-06
aF0.01093417648403282
aF0.007127475756851593
aF4.301046960702709e-05
aF9.244465723027241e-07
aF1.2862836255685632e-20
aF0.0005165697315183022
aF3.419959145899064e-06
aF1.4369530706569962e-12
aF4.923807586411671e-07
aF2.534565263890487e-05
aF3.558308470239499e-07
aF2.0337104200605523e-10
aF0.014192617700467904
aF6.382286099249103e-13
aF0.001220072794492551
aF3.4598340233590206e-05
aF0.02568243068740651
aF0.010560817857987728
aF0.00036672055775736575
aF0.0017764488392425309
aF7.926224509997507e-06
aF5.672299542488717e-09
aF2.7266929205511976e-06
aF0.013731809277470431
aF0.014069493300663772
aF0.00024842173061282396
aF2.5153928942200656e-05
aF4.734653108356805e-09
aF0.011819746967619671
aF2.208219283283986e-06
aF2.2772196394225902e-07
aF0.0010867231279526484
aF0.018931812074465336
aF3.4630837847605513e-09
aF2.980294912788094e-07
aF5.7295810484345084e-06
aF2.188860874630191e-08
aF1.6637956378247429e-09
aF1.2841920749979135e-14
aF9.005990554387109e-05
aF4.873903093015756e-11
aF7.141988131136219e-15
aF1.1561334692470577e-13
aF3.128649959276581e-06
aF2.562658843658741e-10
aF1.6624994443869846e-06
aF0.014428197883980576
aF3.2685231918596973e-18
aF4.791293643548781e-13
aF2.4489351011222065e-20
aF3.800811640146722e-13
aF0.0001675043567730854
aF2.5833767519100674e-13
aF2.1675300869599662e-10
aF2.957584469534997e-16
aF3.6389554705641414e-14
aF5.156402244137208e-09
aF1.464120015905164e-19
aF3.7094952125584867e-13
aF0.000630596880057223
aF3.9653472461049556e-22
aF1.217369639391842e-08
aF0.010814566120546456
aF1.1248376994229317e-06
aF4.458005235813084e-05
aF2.2766618685681754e-13
aF9.173258976370617e-15
aF0.00018056702405062778
aF2.2985838927042375e-06
aF2.700516837853836e-07
aF9.891728662137871e-07
aF1.8176905929162962e-05
aF1.7943114709397283e-12
aF1.7041753804642716e-17
aF3.231082501488561e-14
aF5.980599538315048e-08
aF3.703094704460729e-20
aF1.1342113999551089e-06
aF1.7174043167708934e-06
aF4.747773647557892e-09
aF1.7271280589153402e-08
aF2.2308022956716405e-11
aF9.193022621092876e-17
aF0.0006238164304148792
aF0.011306003249450641
aF1.7839336998481693e-08
aF2.5495996511255822e-17
aF0.0003295444676537901
aF8.243796186819292e-10
aF1.2618713034359242e-07
aF6.284874857544526e-09
aF8.33304397391959e-09
aF3.5028636266889134e-13
aF7.320769996238758e-06
aF2.9173969499215635e-16
aF0.014412069248327612
aF0.00012484721657350894
aF1.1820676375679416e-12
aF0.01175970230402038
aF9.580168102288865e-12
aF0.009081484262982662
aF3.4775719617258945e-17
aF1.494673834631916e-16
aF0.014477679730786997
aF0.0010322400963243491
aF1.3231386496433386e-05
aF0.011781416311243445
aF0.0004988394897389786
aF0.0014836355001309218
aF3.010811161722227e-07
aF9.502448627891453e-07
aF4.9783741615634586e-05
aF4.22647768935927e-09
aF9.64911872328651e-09
aF6.478166409127398e-12
aF5.613687697334493e-05
aF2.4013892590862553e-07
aF0.013768943647856928
aF1.0177825887821166e-12
aF0.001648793490967677
aF0.0036177307104398263
aF1.5510347992024493e-11
aF2.8411020057635637e-10
aF2.941945979925196e-18
aF0.008768822876090347
aF7.0198194643118085e-06
aF1.362339737544879e-10
aF0.014348345501118355
aF0.0002414753912286855
aF1.6047961010976227e-16
aF0.00302951164408865
aF1.5941028876564366e-16
aF3.1476340766925913e-09
aF6.00323302049251e-07
aF2.0556273580823579e-07
aF3.671497565575258e-13
aF9.703455045870793e-05
aF0.025393830613325823
aF2.4987015919532536e-12
aF0.0004868248455189173
aF0.001900959512550748
aF0.0002051337259882154
aF8.323628560455112e-19
aF0.014351600869252646
aF1.1746570261463109e-17
aF0.001017140826594315
aF3.946925739136536e-11
aF1.0108928965098619e-12
aF0.010492200229939313
aF0.009327480584952523
aF3.817135787144862e-11
aa(lp765
F1.2277039571791994e-09
aF6.193035954877927e-18
aF2.492336380639806e-10
aF1.2300655889665998e-22
aF3.0724743450894475e-18
aF9.054290453051584e-13
aF0.0011376442903116935
aF0.011021781109260005
aF0.06446571027333217
aF7.298171849898431e-10
aF6.183556848175745e-13
aF2.1028858104691975e-14
aF4.979260590694437e-09
aF8.680760844515195e-05
aF4.293704814599557e-09
aF8.735878800937254e-07
aF2.9243054461096856e-13
aF2.235907913678888e-10
aF1.5275764741464826e-07
aF8.23257676112526e-05
aF0.00014999072409552176
aF0.0002921198939884754
aF0.0006871818060403183
aF1.3374412553765049e-13
aF3.049314386342462e-14
aF0.0016054711835329473
aF0.05813292751357761
aF7.402110977679794e-05
aF0.00013866125865444272
aF0.015151944771026967
aF0.0003304748112449701
aF4.2356513226810456e-10
aF1.9108276739698084e-08
aF0.0014880802717448943
aF0.1394811828500475
aF0.004347679664098196
aF1.5775113201769868e-05
aF0.006408539566464996
aF0.10666634156764784
aF1.5669559105074638e-05
aF2.4255740490831173e-07
aF0.00031760341478859417
aF0.010248549459886559
aF4.903645834607652e-11
aF3.2658312987257255e-06
aF1.278094263167518e-07
aF0.0014016848377682
aF0.003945217507103529
aF0.04144840221758349
aF0.004435983977601022
aF0.0032110260442772083
aF0.00018181042541731373
aF0.01876564703602353
aF1.7712785483328467e-15
aF1.0617247163809757e-06
aF6.077334981801519e-07
aF1.2455341173955276e-05
aF1.2462322425184226e-15
aF1.457856465498803e-15
aF7.790170443712367e-15
aF2.0256431025645462e-08
aF0.017832196762035533
aF1.6843056297260008e-08
aF1.327899207310045e-07
aF0.010357196192104871
aF3.183795479291137e-13
aF1.7734144475714665e-13
aF2.50330041895662e-11
aF1.7928780049855442e-09
aF1.312336779948958e-10
aF1.2050074879562081e-07
aF9.384303217266795e-09
aF0.0034809979657727795
aF0.01401318005237762
aF0.025459610952487197
aF8.328069432372263e-06
aF8.523461954782191e-08
aF1.9838848621950682e-14
aF1.7246139743258526e-06
aF8.903526159168517e-14
aF0.0003757641523384521
aF4.813769291782699e-06
aF1.4932057445402817e-15
aF5.0244559982476505e-12
aF0.003471120146720547
aF0.000489923291545231
aF0.011555964943452356
aF1.9182284416967613e-07
aF1.4511530501648283e-11
aF2.192989257412064e-07
aF0.0058314065686717554
aF0.00025402012356401165
aF0.00018050432692106244
aF1.4530923831205026e-08
aF0.000526591383010604
aF6.844413357718578e-09
aF6.736539123340994e-07
aF4.102675565726091e-13
aF2.107517151708131e-06
aF3.156873263412191e-10
aF0.020374516640284727
aF2.2302152663950828e-07
aF6.437202317966276e-10
aF0.006328323456194575
aF0.00010661524695151464
aF0.0014907385902923477
aF2.3284161384898182e-12
aF3.34053160495971e-07
aF0.005508107345445244
aF5.727540932316702e-08
aF0.02728113123300513
aF0.013891313375677982
aF4.723409054883259e-08
aF2.8942832319804585e-10
aF0.00047061432569606425
aF2.1846302785821667e-07
aF2.1828784471998454e-10
aF9.820027367848297e-18
aF1.6003423792726298e-09
aF1.0805688825346105e-09
aF3.4730467688565655e-07
aF3.6803369517019854e-05
aF6.082918122460545e-11
aF0.00017868215530856947
aF0.021889269987030082
aF0.03109688907491479
aF4.559217369533385e-09
aF1.0648558837091872e-20
aF2.1214986002042307e-19
aF7.566379832097908e-07
aF9.280364917249227e-10
aF0.0006541231909219811
aF1.467159943541605e-07
aF1.0900452124605377e-13
aF9.615758759585855e-22
aF2.960429099604735e-14
aF1.2560930847094468e-08
aF6.882422023995035e-14
aF1.8007803904266935e-07
aF2.8462405179080363e-10
aF1.2795189108828536e-08
aF1.0977285325643218e-16
aF0.0010180216935709975
aF3.360651600251108e-09
aF3.818404022484664e-16
aF5.440520034688002e-14
aF1.1533157144168906e-14
aF3.755030429983604e-12
aF3.484218940227383e-07
aF1.4102011200902773e-05
aF1.533829922698559e-07
aF1.2818657931421835e-07
aF0.003589935732086789
aF1.1189267638294064e-07
aF1.9791016581573113e-11
aF1.8518289561263184e-13
aF5.740095709657849e-11
aF0.012734317109589381
aF0.0005924554292228662
aF0.00017345370245273826
aF0.06997699949454525
aF9.945951568844358e-07
aF3.158376054272224e-14
aF7.755782262183531e-16
aF4.8555663686417913e-11
aF8.945481110266057e-08
aF1.75855833125252e-10
aF1.1310686012383646e-14
aF2.566982103215361e-06
aF2.1722082680524748e-07
aF2.9025239755624355e-08
aF0.012537975349619895
aF0.012283199769967806
aF1.812770154141188e-15
aF5.327154029567982e-13
aF8.618040026866077e-11
aF0.0037895867630314078
aF3.894290133496877e-17
aF4.4482420181383333e-08
aF1.2238959666725463e-06
aF5.40603409701791e-07
aF3.0774329768424756e-06
aF1.6873491286060733e-12
aF2.7720676955644007e-09
aF2.681088575159028e-13
aF2.5255868769364217e-11
aF7.6512303498217e-05
aF3.528147181330335e-05
aF9.081409980925633e-07
aF1.2208458945144663e-07
aF0.00011279154764662324
aF0.013842774027955982
aF0.0003084263922166716
aF0.0001803398701958524
aF0.0002941221727372808
aF7.845720572530898e-11
aF1.3050901617748945e-05
aF8.856903890780556e-13
aF0.0021587827011499993
aF0.014042689872804354
aF0.042122356965064466
aF0.0042349198049477154
aF0.0005744649589309843
aF0.013950166253999353
aF0.00015549702304199436
aF0.0008097154154812274
aF0.014030551100306784
aF4.392846780322989e-07
aF9.660432979304799e-07
aF1.0087899180543494e-09
aF1.185758257725973e-11
aF2.594103416991271e-09
aF1.3950356565881598e-05
aF7.114535540832273e-17
aF5.876240942987973e-13
aF1.1428643792790079e-10
aF4.207527186135368e-11
aF0.008436946449636403
aF5.3680872075315996e-09
aF8.306474377105213e-13
aF6.241291198490749e-07
aF5.217580471730476e-10
aF1.3858238883941237e-07
aF1.8969021112096334e-07
aF4.223419934557748e-05
aF0.013909209800524177
aF1.0356950959319407e-05
aF6.724215341228215e-06
aF5.06120693796487e-13
aF4.97009998949693e-09
aF0.012868340847949493
aF0.01372088986931225
aF6.4619357318093425e-09
aF0.005252180237510588
aF4.1554887018598596e-05
aF7.498552997309253e-05
aF7.783501781999839e-09
aF4.6536483549292915e-05
aF0.001690717228282161
aF1.5037526184371862e-13
aF2.0237774984390388e-07
aF6.0574890816636656e-05
aF3.617385218068736e-06
aF4.086954332781197e-05
aF1.897729495810631e-12
aF1.0759052106962194e-14
aF9.584425828562106e-08
aF4.820827116236312e-14
aF9.830328716397779e-19
aF2.118414282471214e-12
aF9.559050570318448e-11
aF1.2740566039050321e-15
aF9.548133371755718e-17
aF9.277330626798265e-12
aF1.784204183384024e-10
aF1.7168300007933179e-16
aF5.830796559936609e-13
aF1.9798503011307633e-10
aF0.0006237543159348712
aF0.00015382101403012955
aF6.62245543559979e-05
aF9.22944818828634e-09
aF3.144975262394957e-10
aF2.111802063502262e-06
aF4.007868020313963e-11
aF5.31778367604064e-15
aF1.1634230072072198e-08
aF1.7543535078109733e-13
aF2.3504694775368097e-22
aF1.132406119226588e-14
aF0.0001458829599426591
aF8.47709252652634e-10
aF7.684879885544174e-12
aF6.745803287312903e-06
aF5.3708921875205494e-08
aF3.545955018509482e-11
aF5.605516148241702e-17
aF8.906061113209945e-07
aF1.392866518233713e-05
aF7.214958613114562e-11
aF3.954703130945385e-13
aF2.0671100693221664e-09
aF3.840031732886917e-17
aF1.1941347570027144e-10
aF1.1677239006903596e-13
aF7.126014565184216e-05
aF0.00011756201700290852
aF2.087906709831726e-11
aF1.1925401332786778e-20
aF6.5468036172585825e-18
aF1.507369988696492e-12
aF2.4049298536162672e-09
aF1.411705985313434e-22
aF3.3453526016097963e-18
aF6.037860288109074e-18
aF7.617881064965013e-09
aF7.764512180462853e-07
aF1.3244174665583502e-09
aF5.220774885017215e-11
aF1.468884232277712e-11
aF3.3348680235786444e-08
aasS'A_start'
p766
(lp767
F0.1
aF0.1
aF0.1
aF0.1
aF0.1
aF0.1
aF0.1
aF0.1
aF0.1
aF0.1
asb.